LX51 LINKER/LOCATER V4.66.30.0                                                          11/09/2016  15:43:41  PAGE 1


LX51 LINKER/LOCATER V4.66.30.0, INVOKED BY:
C:\SILICONLABS\SIMPLICITYSTUDIO\V3\DEVELOPER\TOOLCHAINS\KEIL_8051\9.53\BIN\LX51.EXE ./src/Dali.OBJ, ./src/Dali__main.OBJ
>> , ./src/InitDevice.OBJ, ./src/Interrupts.OBJ, ./src/SILABS_STARTUP.OBJ TO DALI_.OMF.CRBUILD REMOVEUNUSED PRINT (.\Dal
>> i_.m51) PAGEWIDTH (120) PAGELENGTH (65) CLASSES (CODE (C:0X0-C:0X3FFE), CONST (C:0X0-C:0X3FFE), ECODE (C:0X0-C:0X3FFE
>> ), HCONST (C:0X0-C:0X3FFE), XDATA (X:0X0-X:0X3FF), HDATA (X:0X0-X:0X3FF))


CPU MODE:     8051 MODE
MEMORY MODEL: SMALL


INPUT MODULES INCLUDED:
  ./src/Dali.OBJ (DALI)
         COMMENT TYPE 0: C51 V9.53.0.0
  ./src/Dali__main.OBJ (DALI__MAIN)
         COMMENT TYPE 0: C51 V9.53.0.0
  ./src/InitDevice.OBJ (INITDEVICE)
         COMMENT TYPE 0: C51 V9.53.0.0
  ./src/Interrupts.OBJ (INTERRUPTS)
         COMMENT TYPE 0: C51 V9.53.0.0
  ./src/SILABS_STARTUP.OBJ (?C_STARTUP)
         COMMENT TYPE 0: AX51 V3.12.0.0
  C:\SILICONLABS\SIMPLICITYSTUDIO\V3\DEVELOPER\TOOLCHAINS\KEIL_8051\9.53\LIB\C51S.LIB (?C_INIT)
         COMMENT TYPE 1: A51 / ASM51 Assembler
  C:\SILICONLABS\SIMPLICITYSTUDIO\V3\DEVELOPER\TOOLCHAINS\KEIL_8051\9.53\LIB\C51S.LIB (?C?COPY)
         COMMENT TYPE 1: A51 / ASM51 Assembler


ACTIVE MEMORY CLASSES OF MODULE:  DALI_.OMF.CRBUILD (DALI)

BASE        START       END         USED      MEMORY CLASS
==========================================================
C:000000H   C:000000H   C:003FFEH   0008A8H   CODE
C:000000H   C:000000H   C:003FFEH             CONST
C:000000H   C:000000H   C:003FFEH             ECODE
B00:0000H   C:000000H   C:003FFEH             HCONST
X:000000H   X:000000H   X:0003FFH   00000CH   XDATA
X:000000H   X:000000H   X:0003FFH             HDATA
I:000000H   I:000000H   I:00007FH   00001AH   DATA
I:000020H.0 I:000020H.0 I:00002FH.7 000000H.4 BIT
I:000000H   I:000000H   I:0000FFH   000001H   IDATA


MEMORY MAP OF MODULE:  DALI_.OMF.CRBUILD (DALI)


START     STOP      LENGTH    ALIGN  RELOC    MEMORY CLASS   SEGMENT NAME
=========================================================================

* * * * * * * * * * *   D A T A   M E M O R Y   * * * * * * * * * * * * *
000000H   000007H   000008H   ---    AT..     DATA           "REG BANK 0"
000008H   000014H   00000DH   BYTE   UNIT     DATA           _DATA_GROUP_
000015H   000019H   000005H   BYTE   UNIT     DATA           ?DT?DALI
00001AH.0 00001FH.7 000006H.0 ---    ---      **GAP**
000020H.0 000020H.3 000000H.4 BIT    UNIT     BIT            ?BI?DALI
000020H.4 000020H   000000H.4 ---    ---      **GAP**
000021H   000021H   000001H   BYTE   UNIT     IDATA          ?STACK

* * * * * * * * * * *   C O D E   M E M O R Y   * * * * * * * * * * * * *
000000H   000002H   000003H   ---    OFFS..   CODE           ?CO?SILABS_STARTUP?3
000003H   00000AH   000008H   BYTE   UNIT     CODE           ?PR?SETBUSYFLAG?DALI
00000BH   00000DH   000003H   BYTE   OFFS..   CODE           ?INTERRUPTS?0000B
00000EH   000012H   000005H   BYTE   UNIT     CODE           ?PR?_RELOADDALITXTIMER?DALI
LX51 LINKER/LOCATER V4.66.30.0                                                        11/09/2016  15:43:41  PAGE 2


000013H   000015H   000003H   BYTE   OFFS..   CODE           ?INTERRUPTS?00013
000016H   000019H   000004H   BYTE   UNIT     CODE           ?PR?ENABLEDALIRXTIMERINT?DALI
00001AH   00001AH   000001H   ---    ---      **GAP**
00001BH   00001DH   000003H   BYTE   OFFS..   CODE           ?INTERRUPTS?0001B
00001EH   000203H   0001E6H   BYTE   UNIT     CODE           ?PR?_DALIRXDECODING?DALI
000204H   0002F9H   0000F6H   BYTE   UNIT     CODE           ?C?LIB_CODE
0002FAH   0003A4H   0000ABH   BYTE   UNIT     CODE           ?PR?_MANCHESTERENCODER?DALI
0003A5H   000430H   00008CH   BYTE   UNIT     CODE           ?C_C51STARTUP
000431H   0004AFH   00007FH   BYTE   UNIT     CODE           ?PR?STARTCONDITIONBITDEMODULATION?DALI
0004B0H   000520H   000071H   BYTE   UNIT     CODE           ?PR?STOPCONDITIONBITVERIFY?DALI
000521H   000575H   000055H   BYTE   UNIT     CODE           ?PR?MANCHESTERTXHANDLER?DALI
000576H   0005C7H   000052H   BYTE   UNIT     CODE           ?PR?BITDEMODULATION?DALI
0005C8H   00060DH   000046H   BYTE   UNIT     CODE           ?PR?MAIN?DALI__MAIN
00060EH   000652H   000045H   BYTE   UNIT     CODE           ?PR?TIMER0_ISR?INTERRUPTS
000653H   000693H   000041H   BYTE   UNIT     CODE           ?PR?INT1_ISR?INTERRUPTS
000694H   0006D3H   000040H   BYTE   UNIT     CODE           ?PR?TIMER1_ISR?INTERRUPTS
0006D4H   000712H   00003FH   BYTE   UNIT     CODE           ?PR?_DALITXFRAME?DALI
000713H   000740H   00002EH   BYTE   UNIT     CODE           ?PR?ISBITHIGHORLOW?DALI
000741H   000762H   000022H   BYTE   UNIT     CODE           ?C_INITSEG
000763H   00077EH   00001CH   BYTE   UNIT     CODE           ?PR?ENTER_DEFAULTMODE_FROM_RESET?INITDEVICE
00077FH   000798H   00001AH   BYTE   UNIT     CODE           ?PR?ISDALIBUSQUIET?DALI
000799H   0007A7H   00000FH   BYTE   UNIT     CODE           ?PR?DALIFRAMESTART?DALI
0007A8H   0007B6H   00000FH   BYTE   UNIT     CODE           ?PR?DALIFRAMESTOP?DALI
0007B7H   0007C4H   00000EH   BYTE   UNIT     CODE           ?PR?_RELOADNSTARTDALIRXTIMER?DALI
0007C5H   0007D2H   00000EH   BYTE   UNIT     CODE           ?PR?TIMER01_0_ENTER_DEFAULTMODE_FROM_RESET?INITDEVICE
0007D3H   0007DFH   00000DH   BYTE   UNIT     CODE           ?PR?PORTS_2_ENTER_DEFAULTMODE_FROM_RESET?INITDEVICE
0007E0H   0007ECH   00000DH   BYTE   UNIT     CODE           ?PR?INTERRUPT_0_ENTER_DEFAULTMODE_FROM_RESET?INITDEVICE
0007EDH   0007F7H   00000BH   BYTE   UNIT     CODE           ?PR?_SETDALIINPUTPINPOLARITY?DALI
0007F8H   000801H   00000AH   BYTE   UNIT     CODE           ?PR?GETDALISTOPFLAG?DALI
000802H   00080BH   00000AH   BYTE   UNIT     CODE           ?PR?TIMER_SETUP_0_ENTER_DEFAULTMODE_FROM_RESET?INITDEVICE
00080CH   000814H   000009H   BYTE   UNIT     CODE           ?PR?_RELOADDALIRXTIMER?DALI
000815H   00081DH   000009H   BYTE   UNIT     CODE           ?PR?GETDALIDATAREADYFLAG?DALI
00081EH   000825H   000008H   BYTE   UNIT     CODE           ?PR?CLEARBUSYFLAG?DALI
000826H   00082DH   000008H   BYTE   UNIT     CODE           ?PR?SETMDOUTPUT?DALI
00082EH   000835H   000008H   BYTE   UNIT     CODE           ?PR?GETMDOUTPUT?DALI
000836H   00083DH   000008H   BYTE   UNIT     CODE           ?PR?SETDALISTOPFLAG?DALI
00083EH   000845H   000008H   BYTE   UNIT     CODE           ?PR?CLEARDALISTOPFLAG?DALI
000846H   00084DH   000008H   BYTE   UNIT     CODE           ?PR?CLEARDALIDATAREADYFLAG?DALI
00084EH   000855H   000008H   BYTE   UNIT     CODE           ?PR?CLEARDALIRXDATA?DALI
000856H   00085CH   000007H   BYTE   UNIT     CODE           ?PR?ENABLEINT1?DALI
00085DH   000863H   000007H   BYTE   UNIT     CODE           ?PR?GETDALIRXDATA?DALI
000864H   00086AH   000007H   BYTE   UNIT     CODE           ?PR?WDT_0_ENTER_DEFAULTMODE_FROM_RESET?INITDEVICE
00086BH   000871H   000007H   BYTE   UNIT     CODE           ?PR?PBCFG_0_ENTER_DEFAULTMODE_FROM_RESET?INITDEVICE
000872H   000877H   000006H   BYTE   UNIT     CODE           ?PR?GETBUSYFLAG?DALI
000878H   00087DH   000006H   BYTE   UNIT     CODE           ?PR?CLEARDALIFLAGS?DALI
00087EH   000883H   000006H   BYTE   UNIT     CODE           ?PR?STOPNDISABLEDALIRXTIMER?DALI
000884H   000889H   000006H   BYTE   UNIT     CODE           ?PR?STOPDALIRXTIMER?DALI
00088AH   00088DH   000004H   BYTE   UNIT     CODE           ?PR?DISABLEDALIRXTIMERINT?DALI
00088EH   000891H   000004H   BYTE   UNIT     CODE           ?PR?STARTDALIRXTIMER?DALI
000892H   000895H   000004H   BYTE   UNIT     CODE           ?PR?CLEARBUSQUIETCOUNTER?DALI
000896H   000899H   000004H   BYTE   UNIT     CODE           ?PR?DISABLEINT1?DALI
00089AH   00089CH   000003H   BYTE   UNIT     CODE           ?PR?SETDALIOUTPUTPIN?DALI
00089DH   00089FH   000003H   BYTE   UNIT     CODE           ?PR?CLEARDALIOUTPUTPIN?DALI
0008A0H   0008A2H   000003H   BYTE   UNIT     CODE           ?PR?GETDALIINTPUTPIN?DALI
0008A3H   0008A5H   000003H   BYTE   UNIT     CODE           ?PR?INCBUSQUIETCOUNTER?DALI
0008A6H   0008A8H   000003H   BYTE   UNIT     CODE           ?PR?GETBUSQUIETCOUNTER?DALI

* * * * * * * * * * *  X D A T A   M E M O R Y  * * * * * * * * * * * * *
000000H   000009H   00000AH   BYTE   UNIT     XDATA          ?XD?DALI
00000AH   00000BH   000002H   BYTE   UNIT     XDATA          ?XD?DALI__MAIN

* * * * * * * * *   R E M O V E D     S E G M E N T S   * * * * * * * *
LX51 LINKER/LOCATER V4.66.30.0                                                        11/09/2016  15:43:41  PAGE 3


   *DEL*:           000008H   BYTE   UNIT     CODE           ?PR?CLEARMDOUTPUT?DALI
   *DEL*:           000004H   BYTE   UNIT     CODE           ?PR?STARTDALITXTIMER?DALI
   *DEL*:           000008H   BYTE   UNIT     CODE           ?PR?GETDALITXTIMER?DALI
   *DEL*:           000006H   BYTE   UNIT     CODE           ?PR?STOPDALITXTIMER?DALI
   *DEL*:           000031H   BYTE   UNIT     CODE           ?PR?_DALIANSWERFRAME?DALI
   *DEL*:           000001H   BYTE   UNIT     DATA           ?DT?_DALIANSWERFRAME?DALI
   *DEL*:           000003H   BYTE   UNIT     CODE           ?PR?GETDALIOUTPUTPIN?DALI
   *DEL*:           000008H   BYTE   UNIT     CODE           ?PR?GETDALIRXTIMER?DALI
   *DEL*:           000008H   BYTE   UNIT     CODE           ?PR?SETDALIRXERRORFLAG?DALI
   *DEL*:           000008H   BYTE   UNIT     CODE           ?PR?CLEARDALIRXERRORFLAG?DALI
   *DEL*:           00000BH   BYTE   UNIT     CODE           ?PR?GETDALIRXERRORFLAG?DALI
   *DEL*:           000008H   BYTE   UNIT     CODE           ?PR?SETDALIDATAREADYFLAG?DALI



OVERLAY MAP OF MODULE:   DALI_.OMF.CRBUILD (DALI)


FUNCTION/MODULE                                BIT_GROUP   DATA_GROUP 
--> CALLED FUNCTION/MODULE                    START  STOP  START  STOP
======================================================================
INT1_ISR/INTERRUPTS                           ----- -----  ----- -----
  +--> _DALIRXDECODING/DALI

_DALIRXDECODING/DALI                          ----- -----  000DH 0011H
  +--> GETBUSQUIETCOUNTER/DALI
  +--> STARTCONDITIONBITDEMODULATION/DALI
  +--> BITDEMODULATION/DALI
  +--> ISBITHIGHORLOW/DALI
  +--> _RELOADNSTARTDALIRXTIMER/DALI
  +--> STOPCONDITIONBITVERIFY/DALI
  +--> STOPNDISABLEDALIRXTIMER/DALI
  +--> _SETDALIINPUTPINPOLARITY/DALI
  +--> ENABLEINT1/DALI

GETBUSQUIETCOUNTER/DALI                       ----- -----  ----- -----

STARTCONDITIONBITDEMODULATION/DALI            ----- -----  ----- -----
  +--> GETDALIINTPUTPIN/DALI
  +--> _RELOADNSTARTDALIRXTIMER/DALI
  +--> STOPNDISABLEDALIRXTIMER/DALI
  +--> _SETDALIINPUTPINPOLARITY/DALI
  +--> ENABLEINT1/DALI
  +--> DISABLEINT1/DALI

GETDALIINTPUTPIN/DALI                         ----- -----  ----- -----

_RELOADNSTARTDALIRXTIMER/DALI                 ----- -----  ----- -----
  +--> ENABLEDALIRXTIMERINT/DALI
  +--> STARTDALIRXTIMER/DALI

ENABLEDALIRXTIMERINT/DALI                     ----- -----  ----- -----

STARTDALIRXTIMER/DALI                         ----- -----  ----- -----

STOPNDISABLEDALIRXTIMER/DALI                  ----- -----  ----- -----
  +--> STOPDALIRXTIMER/DALI
  +--> DISABLEDALIRXTIMERINT/DALI

STOPDALIRXTIMER/DALI                          ----- -----  ----- -----

DISABLEDALIRXTIMERINT/DALI                    ----- -----  ----- -----
LX51 LINKER/LOCATER V4.66.30.0                                                        11/09/2016  15:43:41  PAGE 4



_SETDALIINPUTPINPOLARITY/DALI                 ----- -----  ----- -----

ENABLEINT1/DALI                               ----- -----  ----- -----

DISABLEINT1/DALI                              ----- -----  ----- -----

BITDEMODULATION/DALI                          ----- -----  ----- -----
  +--> GETDALIINTPUTPIN/DALI
  +--> _RELOADNSTARTDALIRXTIMER/DALI

ISBITHIGHORLOW/DALI                           ----- -----  ----- -----

STOPCONDITIONBITVERIFY/DALI                   ----- -----  ----- -----
  +--> GETDALIINTPUTPIN/DALI
  +--> _RELOADDALIRXTIMER/DALI

_RELOADDALIRXTIMER/DALI                       ----- -----  ----- -----

*** NEW ROOT ********************************

TIMER1_ISR/INTERRUPTS                         ----- -----  ----- -----
  +--> _DALIRXDECODING/DALI

*** NEW ROOT ********************************

TIMER0_ISR/INTERRUPTS                         ----- -----  ----- -----
  +--> _RELOADDALITXTIMER/DALI
  +--> MANCHESTERTXHANDLER/DALI
  +--> ISDALIBUSQUIET/DALI

_RELOADDALITXTIMER/DALI                       ----- -----  ----- -----

MANCHESTERTXHANDLER/DALI                      ----- -----  ----- -----
  +--> GETBUSYFLAG/DALI
  +--> GETDALISTOPFLAG/DALI
  +--> GETMDOUTPUT/DALI
  +--> SETDALIOUTPUTPIN/DALI
  +--> CLEARDALIOUTPUTPIN/DALI
  +--> CLEARDALISTOPFLAG/DALI
  +--> CLEARBUSYFLAG/DALI

GETBUSYFLAG/DALI                              ----- -----  ----- -----

GETDALISTOPFLAG/DALI                          ----- -----  ----- -----

GETMDOUTPUT/DALI                              ----- -----  ----- -----

SETDALIOUTPUTPIN/DALI                         ----- -----  ----- -----

CLEARDALIOUTPUTPIN/DALI                       ----- -----  ----- -----

CLEARDALISTOPFLAG/DALI                        ----- -----  ----- -----

CLEARBUSYFLAG/DALI                            ----- -----  ----- -----

ISDALIBUSQUIET/DALI                           ----- -----  ----- -----
  +--> GETDALIINTPUTPIN/DALI
  +--> GETBUSQUIETCOUNTER/DALI
  +--> INCBUSQUIETCOUNTER/DALI
  +--> CLEARBUSQUIETCOUNTER/DALI

LX51 LINKER/LOCATER V4.66.30.0                                                        11/09/2016  15:43:41  PAGE 5


INCBUSQUIETCOUNTER/DALI                       ----- -----  ----- -----

CLEARBUSQUIETCOUNTER/DALI                     ----- -----  ----- -----

*** NEW ROOT ********************************

?C_C51STARTUP                                 ----- -----  ----- -----
  +--> MAIN/DALI__MAIN
  +--> ?C_INITSEG

MAIN/DALI__MAIN                               ----- -----  0012H 0012H
  +--> ENTER_DEFAULTMODE_FROM_RESET/INITDEVICE
  +--> CLEARDALIFLAGS/DALI
  +--> CLEARDALIRXDATA/DALI
  +--> _DALITXFRAME/DALI
  +--> GETDALIDATAREADYFLAG/DALI
  +--> CLEARDALIDATAREADYFLAG/DALI
  +--> GETDALIRXDATA/DALI

ENTER_DEFAULTMODE_FROM_RESET/INITDEVICE       ----- -----  0013H 0013H
  +--> WDT_0_ENTER_DEFAULTMODE_FROM_RESET/INITDEVICE
  +--> PORTS_2_ENTER_DEFAULTMODE_FROM_RESET/INITDEVICE
  +--> PBCFG_0_ENTER_DEFAULTMODE_FROM_RESET/INITDEVICE
  +--> TIMER01_0_ENTER_DEFAULTMODE_FROM_RESET/INITDEVICE
  +--> TIMER_SETUP_0_ENTER_DEFAULTMODE_FROM_RESET/INITDEVICE
  +--> INTERRUPT_0_ENTER_DEFAULTMODE_FROM_RESET/INITDEVICE

WDT_0_ENTER_DEFAULTMODE_FROM_RESET/INITD+     ----- -----  ----- -----
... EVICE

PORTS_2_ENTER_DEFAULTMODE_FROM_RESET/INI+     ----- -----  ----- -----
... TDEVICE

PBCFG_0_ENTER_DEFAULTMODE_FROM_RESET/INI+     ----- -----  ----- -----
... TDEVICE

TIMER01_0_ENTER_DEFAULTMODE_FROM_RESET/I+     ----- -----  ----- -----
... NITDEVICE

TIMER_SETUP_0_ENTER_DEFAULTMODE_FROM_RES+     ----- -----  ----- -----
... ET/INITDEVICE

INTERRUPT_0_ENTER_DEFAULTMODE_FROM_RESET+     ----- -----  ----- -----
... /INITDEVICE

CLEARDALIFLAGS/DALI                           ----- -----  ----- -----

CLEARDALIRXDATA/DALI                          ----- -----  ----- -----

_DALITXFRAME/DALI                             ----- -----  0013H 0014H
  +--> SETDALIOUTPUTPIN/DALI
  +--> DALIFRAMESTART/DALI
  +--> _MANCHESTERENCODER/DALI
  +--> DALIFRAMESTOP/DALI

DALIFRAMESTART/DALI                           ----- -----  ----- -----
  +--> CLEARBUSYFLAG/DALI
  +--> SETMDOUTPUT/DALI
  +--> SETBUSYFLAG/DALI
  +--> GETBUSYFLAG/DALI

SETMDOUTPUT/DALI                              ----- -----  ----- -----
LX51 LINKER/LOCATER V4.66.30.0                                                        11/09/2016  15:43:41  PAGE 6



SETBUSYFLAG/DALI                              ----- -----  ----- -----

_MANCHESTERENCODER/DALI                       ----- -----  ----- -----
  +--> CLEARBUSYFLAG/DALI
  +--> GETBUSYFLAG/DALI
  +--> SETBUSYFLAG/DALI

DALIFRAMESTOP/DALI                            ----- -----  ----- -----
  +--> CLEARBUSYFLAG/DALI
  +--> SETDALISTOPFLAG/DALI
  +--> SETBUSYFLAG/DALI
  +--> GETBUSYFLAG/DALI

SETDALISTOPFLAG/DALI                          ----- -----  ----- -----

GETDALIDATAREADYFLAG/DALI                     ----- -----  ----- -----

CLEARDALIDATAREADYFLAG/DALI                   ----- -----  ----- -----

GETDALIRXDATA/DALI                            ----- -----  ----- -----

?C_INITSEG                                    ----- -----  ----- -----



PUBLIC SYMBOLS OF MODULE:  DALI_.OMF.CRBUILD (DALI)


      VALUE       CLASS    TYPE      PUBLIC SYMBOL NAME
      =================================================
      00000000H   NUMBER   ---       ?C?CODESEG
      010002D4H   CODE     ---       ?C?COPY
      00000000H   NUMBER   ---       ?C?XDATASEG
      010003ECH   CODE     ---       ?C_START
      01000000H   CODE     NEAR LAB  ?C_STARTUP
      00000020H.3 BIT      BIT       _1stQ
      00000020H.0 BIT      BIT       _2ndQ
      00000020H.1 BIT      BIT       _3rdQ
      00000020H.2 BIT      BIT       _4thQ
*DEL*:00000000H   CODE     ---       _DaliAnswerFrame
      0100001EH   CODE     ---       _DaliRXDecoding
      010006D4H   CODE     ---       _DaliTXFrame
      010002FAH   CODE     ---       _ManchesterEncoder
      01000810H   CODE     ---       _ReloadDaliRxTimer
      0100000EH   CODE     ---       _ReloadDaliTxTimer
      010007BBH   CODE     ---       _ReloadnStartDaliRxTimer
      010007EDH   CODE     ---       _SetDaliInputPinPolarity
*SFR* 000000E0H   DATA     BYTE      ACC
*SFR* 000000E0H   DATA     BIT       ACC_ACC0
*SFR* 000000E0H.1 DATA     BIT       ACC_ACC1
*SFR* 000000E0H.2 DATA     BIT       ACC_ACC2
*SFR* 000000E0H.3 DATA     BIT       ACC_ACC3
*SFR* 000000E0H.4 DATA     BIT       ACC_ACC4
*SFR* 000000E0H.5 DATA     BIT       ACC_ACC5
*SFR* 000000E0H.6 DATA     BIT       ACC_ACC6
*SFR* 000000E0H.7 DATA     BIT       ACC_ACC7
*SFR* 000000BDH   DATA     WORD      ADC0
*SFR* 000000B3H   DATA     BYTE      ADC0AC
*SFR* 000000BCH   DATA     BYTE      ADC0CF
*SFR* 000000E8H   DATA     BYTE      ADC0CN0
*SFR* 000000E8H.6 DATA     BIT       ADC0CN0_ADBMEN
LX51 LINKER/LOCATER V4.66.30.0                                                        11/09/2016  15:43:41  PAGE 7


*SFR* 000000E8H.4 DATA     BIT       ADC0CN0_ADBUSY
*SFR* 000000E8H   DATA     BIT       ADC0CN0_ADCM0
*SFR* 000000E8H.1 DATA     BIT       ADC0CN0_ADCM1
*SFR* 000000E8H.2 DATA     BIT       ADC0CN0_ADCM2
*SFR* 000000E8H.7 DATA     BIT       ADC0CN0_ADEN
*SFR* 000000E8H.5 DATA     BIT       ADC0CN0_ADINT
*SFR* 000000E8H.3 DATA     BIT       ADC0CN0_ADWINT
*SFR* 000000B2H   DATA     BYTE      ADC0CN1
*SFR* 000000C3H   DATA     WORD      ADC0GT
*SFR* 000000C4H   DATA     BYTE      ADC0GTH
*SFR* 000000C3H   DATA     BYTE      ADC0GTL
*SFR* 000000BEH   DATA     BYTE      ADC0H
*SFR* 000000BDH   DATA     BYTE      ADC0L
*SFR* 000000C5H   DATA     WORD      ADC0LT
*SFR* 000000C6H   DATA     BYTE      ADC0LTH
*SFR* 000000C5H   DATA     BYTE      ADC0LTL
*SFR* 000000BBH   DATA     BYTE      ADC0MX
*SFR* 000000DFH   DATA     BYTE      ADC0PWR
*SFR* 000000B9H   DATA     BYTE      ADC0TK
*SFR* 000000F0H   DATA     BYTE      B
*SFR* 000000F0H   DATA     BIT       B_B0
*SFR* 000000F0H.1 DATA     BIT       B_B1
*SFR* 000000F0H.2 DATA     BIT       B_B2
*SFR* 000000F0H.3 DATA     BIT       B_B3
*SFR* 000000F0H.4 DATA     BIT       B_B4
*SFR* 000000F0H.5 DATA     BIT       B_B5
*SFR* 000000F0H.6 DATA     BIT       B_B6
*SFR* 000000F0H.7 DATA     BIT       B_B7
      01000576H   CODE     ---       bitDemodulation
      00000019H   DATA     BYTE      BusQuietCounter
*SFR* 0000008EH   DATA     BYTE      CKCON0
*SFR* 000000A6H   DATA     BYTE      CKCON1
      01000892H   CODE     ---       ClearBusQuietCounter
      0100081EH   CODE     ---       ClearBusyFlag
      01000846H   CODE     ---       ClearDaliDataReadyFlag
      01000878H   CODE     ---       ClearDaliFlags
      0100089DH   CODE     ---       ClearDaliOutputPin
      0100084EH   CODE     ---       ClearDaliRXData
*DEL*:00000000H   CODE     ---       ClearDaliRxErrorFlag
      0100083EH   CODE     ---       ClearDaliStopFlag
*DEL*:00000000H   CODE     ---       ClearMDOutput
*SFR* 000000A9H   DATA     BYTE      CLKSEL
*SFR* 0000009BH   DATA     BYTE      CMP0CN0
*SFR* 00000099H   DATA     BYTE      CMP0CN1
*SFR* 0000009DH   DATA     BYTE      CMP0MD
*SFR* 0000009FH   DATA     BYTE      CMP0MX
*SFR* 000000BFH   DATA     BYTE      CMP1CN0
*SFR* 000000ACH   DATA     BYTE      CMP1CN1
*SFR* 000000ABH   DATA     BYTE      CMP1MD
*SFR* 000000AAH   DATA     BYTE      CMP1MX
*SFR* 000000CEH   DATA     BYTE      CRC0CN0
*SFR* 00000086H   DATA     BYTE      CRC0CN1
*SFR* 000000D3H   DATA     BYTE      CRC0CNT
*SFR* 000000DEH   DATA     BYTE      CRC0DAT
*SFR* 000000CFH   DATA     BYTE      CRC0FLIP
*SFR* 000000DDH   DATA     BYTE      CRC0IN
*SFR* 000000D2H   DATA     BYTE      CRC0ST
*SFR* 00000080H.7 DATA     BIT       DALI_IN
*SFR* 00000080H   DATA     BIT       DALI_OUT
      01000799H   CODE     ---       DaliFrameStart
      010007A8H   CODE     ---       DaliFrameStop
      0200000AH   XDATA    ---       DaliRead
LX51 LINKER/LOCATER V4.66.30.0                                                        11/09/2016  15:43:41  PAGE 8


*SFR* 000000ADH   DATA     BYTE      DERIVID
*SFR* 000000B5H   DATA     BYTE      DEVICEID
      0100088AH   CODE     ---       DisableDaliRxTimerInt
      01000896H   CODE     ---       DisableInt1
*SFR* 00000082H   DATA     WORD      DP
*SFR* 00000083H   DATA     BYTE      DPH
*SFR* 00000082H   DATA     BYTE      DPL
*SFR* 000000A0H.3 DATA     BIT       EFM_DISP_ENABLE
*SFR* 000000E6H   DATA     BYTE      EIE1
*SFR* 000000CEH   DATA     BYTE      EIE2
*SFR* 000000F3H   DATA     BYTE      EIP1
*SFR* 000000F5H   DATA     BYTE      EIP1H
*SFR* 000000F4H   DATA     BYTE      EIP2
*SFR* 000000F6H   DATA     BYTE      EIP2H
*SFR* 000000E7H   DATA     BYTE      EMI0CN
      01000016H   CODE     ---       EnableDaliRxTimerInt
      01000856H   CODE     ---       EnableInt1
      01000763H   CODE     ---       enter_DefaultMode_from_RESET
*SFR* 000000B7H   DATA     BYTE      FLKEY
      010008A6H   CODE     ---       GetBusQuietCounter
      01000872H   CODE     ---       GetBusyFlag
      01000815H   CODE     ---       GetDaliDataReadyFlag
      010008A0H   CODE     ---       GetDaliIntputPin
*DEL*:00000000H   CODE     ---       GetDaliOutputPin
      0100085DH   CODE     ---       GetDaliRXData
*DEL*:00000000H   CODE     ---       GetDaliRxErrorFlag
*DEL*:00000000H   CODE     ---       GetDaliRxTimer
      010007F8H   CODE     ---       GetDaliStopFlag
*DEL*:00000000H   CODE     ---       GetDaliTxTimer
      0100082EH   CODE     ---       GetMDOutput
*SFR* 000000C7H   DATA     BYTE      HFO0CAL
*SFR* 000000D6H   DATA     BYTE      HFO1CAL
*SFR* 000000EFH   DATA     BYTE      HFOCN
*SFR* 000000BAH   DATA     BYTE      I2C0CN0
*SFR* 000000BCH   DATA     BYTE      I2C0DIN
*SFR* 000000BBH   DATA     BYTE      I2C0DOUT
*SFR* 000000ADH   DATA     BYTE      I2C0FCN0
*SFR* 000000ABH   DATA     BYTE      I2C0FCN1
*SFR* 000000F5H   DATA     BYTE      I2C0FCT
*SFR* 000000BDH   DATA     BYTE      I2C0SLAD
*SFR* 000000B9H   DATA     BYTE      I2C0STAT
*SFR* 000000A8H   DATA     BYTE      IE
*SFR* 000000A8H.7 DATA     BIT       IE_EA
*SFR* 000000A8H.4 DATA     BIT       IE_ES0
*SFR* 000000A8H.6 DATA     BIT       IE_ESPI0
*SFR* 000000A8H.1 DATA     BIT       IE_ET0
*SFR* 000000A8H.3 DATA     BIT       IE_ET1
*SFR* 000000A8H.5 DATA     BIT       IE_ET2
*SFR* 000000A8H   DATA     BIT       IE_EX0
*SFR* 000000A8H.2 DATA     BIT       IE_EX1
      010008A3H   CODE     ---       IncBusQuietCounter
      01000653H   CODE     ---       INT1_ISR
      010007E0H   CODE     ---       INTERRUPT_0_enter_DefaultMode_from_RESET
*SFR* 000000B8H   DATA     BYTE      IP
*SFR* 000000B8H.4 DATA     BIT       IP_PS0
*SFR* 000000B8H.6 DATA     BIT       IP_PSPI0
*SFR* 000000B8H.1 DATA     BIT       IP_PT0
*SFR* 000000B8H.3 DATA     BIT       IP_PT1
*SFR* 000000B8H.5 DATA     BIT       IP_PT2
*SFR* 000000B8H   DATA     BIT       IP_PX0
*SFR* 000000B8H.2 DATA     BIT       IP_PX1
*SFR* 000000F2H   DATA     BYTE      IPH
LX51 LINKER/LOCATER V4.66.30.0                                                        11/09/2016  15:43:41  PAGE 9


      01000713H   CODE     ---       isbitHighorLow
      0100077FH   CODE     ---       IsDaliBusQuiet
*SFR* 000000E4H   DATA     BYTE      IT01CF
*SFR* 00000090H.4 DATA     BIT       LED1
*SFR* 00000090H.5 DATA     BIT       LED2
*SFR* 00000090H.6 DATA     BIT       LED3
*SFR* 000000B0H.1 DATA     BIT       LED4
*SFR* 00000080H.4 DATA     BIT       LED5
*SFR* 000000B1H   DATA     BYTE      LFO0CN
      010005C8H   CODE     ---       main
      01000521H   CODE     ---       ManchesterTXHandler
*SFR* 00000080H   DATA     BYTE      P0
*SFR* 00000080H   DATA     BIT       P0_B0
*SFR* 00000080H.1 DATA     BIT       P0_B1
*SFR* 00000080H.2 DATA     BIT       P0_B2
*SFR* 00000080H.3 DATA     BIT       P0_B3
*SFR* 00000080H.4 DATA     BIT       P0_B4
*SFR* 00000080H.5 DATA     BIT       P0_B5
*SFR* 00000080H.6 DATA     BIT       P0_B6
*SFR* 00000080H.7 DATA     BIT       P0_B7
*SFR* 000000FEH   DATA     BYTE      P0MASK
*SFR* 000000FDH   DATA     BYTE      P0MAT
*SFR* 000000F1H   DATA     BYTE      P0MDIN
*SFR* 000000A4H   DATA     BYTE      P0MDOUT
*SFR* 000000D4H   DATA     BYTE      P0SKIP
*SFR* 00000090H   DATA     BYTE      P1
*SFR* 00000090H   DATA     BIT       P1_B0
*SFR* 00000090H.1 DATA     BIT       P1_B1
*SFR* 00000090H.2 DATA     BIT       P1_B2
*SFR* 00000090H.3 DATA     BIT       P1_B3
*SFR* 00000090H.4 DATA     BIT       P1_B4
*SFR* 00000090H.5 DATA     BIT       P1_B5
*SFR* 00000090H.6 DATA     BIT       P1_B6
*SFR* 00000090H.7 DATA     BIT       P1_B7
*SFR* 000000EEH   DATA     BYTE      P1MASK
*SFR* 000000EDH   DATA     BYTE      P1MAT
*SFR* 000000F2H   DATA     BYTE      P1MDIN
*SFR* 000000A5H   DATA     BYTE      P1MDOUT
*SFR* 000000D5H   DATA     BYTE      P1SKIP
*SFR* 000000A0H   DATA     BYTE      P2
*SFR* 000000A0H   DATA     BIT       P2_B0
*SFR* 000000A0H.1 DATA     BIT       P2_B1
*SFR* 000000A0H.2 DATA     BIT       P2_B2
*SFR* 000000A0H.3 DATA     BIT       P2_B3
*SFR* 000000FCH   DATA     BYTE      P2MASK
*SFR* 000000FBH   DATA     BYTE      P2MAT
*SFR* 000000F3H   DATA     BYTE      P2MDIN
*SFR* 000000A6H   DATA     BYTE      P2MDOUT
*SFR* 000000CCH   DATA     BYTE      P2SKIP
*SFR* 000000B0H   DATA     BYTE      P3
*SFR* 000000B0H   DATA     BIT       P3_B0
*SFR* 000000B0H.1 DATA     BIT       P3_B1
*SFR* 000000F4H   DATA     BYTE      P3MDIN
*SFR* 0000009CH   DATA     BYTE      P3MDOUT
*SFR* 00000080H.2 DATA     BIT       PB0_SW
      0100086BH   CODE     ---       PBCFG_0_enter_DefaultMode_from_RESET
*SFR* 000000F9H   DATA     WORD      PCA0
*SFR* 0000009EH   DATA     BYTE      PCA0CENT
*SFR* 0000009CH   DATA     BYTE      PCA0CLR
*SFR* 000000D8H   DATA     BYTE      PCA0CN0
*SFR* 000000D8H   DATA     BIT       PCA0CN0_CCF0
*SFR* 000000D8H.1 DATA     BIT       PCA0CN0_CCF1
LX51 LINKER/LOCATER V4.66.30.0                                                        11/09/2016  15:43:41  PAGE 10


*SFR* 000000D8H.2 DATA     BIT       PCA0CN0_CCF2
*SFR* 000000D8H.7 DATA     BIT       PCA0CN0_CF
*SFR* 000000D8H.6 DATA     BIT       PCA0CN0_CR
*SFR* 000000FBH   DATA     WORD      PCA0CP0
*SFR* 000000E9H   DATA     WORD      PCA0CP1
*SFR* 000000EBH   DATA     WORD      PCA0CP2
*SFR* 000000FCH   DATA     BYTE      PCA0CPH0
*SFR* 000000EAH   DATA     BYTE      PCA0CPH1
*SFR* 000000ECH   DATA     BYTE      PCA0CPH2
*SFR* 000000FBH   DATA     BYTE      PCA0CPL0
*SFR* 000000E9H   DATA     BYTE      PCA0CPL1
*SFR* 000000EBH   DATA     BYTE      PCA0CPL2
*SFR* 000000DAH   DATA     BYTE      PCA0CPM0
*SFR* 000000DBH   DATA     BYTE      PCA0CPM1
*SFR* 000000DCH   DATA     BYTE      PCA0CPM2
*SFR* 000000FAH   DATA     BYTE      PCA0H
*SFR* 000000F9H   DATA     BYTE      PCA0L
*SFR* 000000D9H   DATA     BYTE      PCA0MD
*SFR* 00000096H   DATA     BYTE      PCA0POL
*SFR* 000000F7H   DATA     BYTE      PCA0PWM
*SFR* 00000087H   DATA     BYTE      PCON0
*SFR* 0000009AH   DATA     BYTE      PCON1
*SFR* 000000C1H   DATA     BYTE      PFE0CN
      010007D3H   CODE     ---       PORTS_2_enter_DefaultMode_from_RESET
*SFR* 000000A0H   DATA     BYTE      PPAGE_SFR
*SFR* 000000F6H   DATA     BYTE      PRTDRV
*SFR* 0000008FH   DATA     BYTE      PSCTL
*SFR* 000000D0H   DATA     BYTE      PSW
*SFR* 000000D0H.6 DATA     BIT       PSW_AC
*SFR* 000000D0H.7 DATA     BIT       PSW_CY
*SFR* 000000D0H.5 DATA     BIT       PSW_F0
*SFR* 000000D0H.1 DATA     BIT       PSW_F1
*SFR* 000000D0H.2 DATA     BIT       PSW_OV
*SFR* 000000D0H   DATA     BIT       PSW_PARITY
*SFR* 000000D0H.3 DATA     BIT       PSW_RS0
*SFR* 000000D0H.4 DATA     BIT       PSW_RS1
*SFR* 000000D1H   DATA     BYTE      REF0CN
*SFR* 000000C9H   DATA     BYTE      REG0CN
*SFR* 000000C6H   DATA     BYTE      REG1CN
*SFR* 000000B6H   DATA     BYTE      REVID
*SFR* 000000EFH   DATA     BYTE      RSTSRC
*SFR* 00000094H   DATA     BYTE      SBCON1
*SFR* 00000095H   DATA     WORD      SBRL1
*SFR* 00000096H   DATA     BYTE      SBRLH1
*SFR* 00000095H   DATA     BYTE      SBRLL1
*SFR* 00000099H   DATA     BYTE      SBUF0
*SFR* 00000092H   DATA     BYTE      SBUF1
*SFR* 00000098H   DATA     BYTE      SCON0
*SFR* 00000098H.5 DATA     BIT       SCON0_MCE
*SFR* 00000098H.2 DATA     BIT       SCON0_RB8
*SFR* 00000098H.4 DATA     BIT       SCON0_REN
*SFR* 00000098H   DATA     BIT       SCON0_RI
*SFR* 00000098H.7 DATA     BIT       SCON0_SMODE
*SFR* 00000098H.3 DATA     BIT       SCON0_TB8
*SFR* 00000098H.1 DATA     BIT       SCON0_TI
*SFR* 000000C8H   DATA     BYTE      SCON1
*SFR* 000000C8H.7 DATA     BIT       SCON1_OVR
*SFR* 000000C8H.6 DATA     BIT       SCON1_PERR
*SFR* 000000C8H.2 DATA     BIT       SCON1_RBX
*SFR* 000000C8H.4 DATA     BIT       SCON1_REN
*SFR* 000000C8H   DATA     BIT       SCON1_RI
*SFR* 000000C8H.3 DATA     BIT       SCON1_TBX
LX51 LINKER/LOCATER V4.66.30.0                                                        11/09/2016  15:43:41  PAGE 11


*SFR* 000000C8H.1 DATA     BIT       SCON1_TI
      01000003H   CODE     ---       SetBusyFlag
*DEL*:00000000H   CODE     ---       SetDaliDataReadyFlag
      0100089AH   CODE     ---       SetDaliOutputPin
*DEL*:00000000H   CODE     ---       SetDaliRxErrorFlag
      01000836H   CODE     ---       SetDaliStopFlag
      01000826H   CODE     ---       SetMDOutput
*SFR* 000000A7H   DATA     BYTE      SFRPAGE
*SFR* 000000CFH   DATA     BYTE      SFRPGCN
*SFR* 000000D7H   DATA     BYTE      SFRSTACK
*SFR* 000000D6H   DATA     BYTE      SMB0ADM
*SFR* 000000D7H   DATA     BYTE      SMB0ADR
*SFR* 000000C1H   DATA     BYTE      SMB0CF
*SFR* 000000C0H   DATA     BYTE      SMB0CN0
*SFR* 000000C0H.1 DATA     BIT       SMB0CN0_ACK
*SFR* 000000C0H.3 DATA     BIT       SMB0CN0_ACKRQ
*SFR* 000000C0H.2 DATA     BIT       SMB0CN0_ARBLOST
*SFR* 000000C0H.7 DATA     BIT       SMB0CN0_MASTER
*SFR* 000000C0H   DATA     BIT       SMB0CN0_SI
*SFR* 000000C0H.5 DATA     BIT       SMB0CN0_STA
*SFR* 000000C0H.4 DATA     BIT       SMB0CN0_STO
*SFR* 000000C0H.6 DATA     BIT       SMB0CN0_TXMODE
*SFR* 000000C2H   DATA     BYTE      SMB0DAT
*SFR* 000000C3H   DATA     BYTE      SMB0FCN0
*SFR* 000000C4H   DATA     BYTE      SMB0FCN1
*SFR* 000000EFH   DATA     BYTE      SMB0FCT
*SFR* 000000C5H   DATA     BYTE      SMB0RXLN
*SFR* 000000ACH   DATA     BYTE      SMB0TC
*SFR* 00000093H   DATA     BYTE      SMOD1
*SFR* 00000081H   DATA     BYTE      SP
*SFR* 000000A1H   DATA     BYTE      SPI0CFG
*SFR* 000000A2H   DATA     BYTE      SPI0CKR
*SFR* 000000F8H   DATA     BYTE      SPI0CN0
*SFR* 000000F8H.5 DATA     BIT       SPI0CN0_MODF
*SFR* 000000F8H.2 DATA     BIT       SPI0CN0_NSSMD0
*SFR* 000000F8H.3 DATA     BIT       SPI0CN0_NSSMD1
*SFR* 000000F8H.4 DATA     BIT       SPI0CN0_RXOVRN
*SFR* 000000F8H   DATA     BIT       SPI0CN0_SPIEN
*SFR* 000000F8H.7 DATA     BIT       SPI0CN0_SPIF
*SFR* 000000F8H.1 DATA     BIT       SPI0CN0_TXNF
*SFR* 000000F8H.6 DATA     BIT       SPI0CN0_WCOL
*SFR* 000000A3H   DATA     BYTE      SPI0DAT
*SFR* 0000009AH   DATA     BYTE      SPI0FCN0
*SFR* 0000009BH   DATA     BYTE      SPI0FCN1
*SFR* 000000F7H   DATA     BYTE      SPI0FCT
      01000431H   CODE     ---       startconditionbitDemodulation
      0100088EH   CODE     ---       StartDaliRxTimer
*DEL*:00000000H   CODE     ---       StartDaliTxTimer
      010004B0H   CODE     ---       stopconditionbitverify
      01000884H   CODE     ---       StopDaliRxTimer
*DEL*:00000000H   CODE     ---       StopDaliTxTimer
      0100087EH   CODE     ---       StopnDisableDaliRxTimer
*SFR* 00000088H   DATA     BYTE      TCON
*SFR* 00000088H.1 DATA     BIT       TCON_IE0
*SFR* 00000088H.3 DATA     BIT       TCON_IE1
*SFR* 00000088H   DATA     BIT       TCON_IT0
*SFR* 00000088H.2 DATA     BIT       TCON_IT1
*SFR* 00000088H.5 DATA     BIT       TCON_TF0
*SFR* 00000088H.7 DATA     BIT       TCON_TF1
*SFR* 00000088H.4 DATA     BIT       TCON_TR0
*SFR* 00000088H.6 DATA     BIT       TCON_TR1
*SFR* 0000008CH   DATA     BYTE      TH0
LX51 LINKER/LOCATER V4.66.30.0                                                        11/09/2016  15:43:41  PAGE 12


*SFR* 0000008DH   DATA     BYTE      TH1
      010007C5H   CODE     ---       TIMER01_0_enter_DefaultMode_from_RESET
      0100060EH   CODE     ---       TIMER0_ISR
      01000694H   CODE     ---       TIMER1_ISR
      01000802H   CODE     ---       TIMER_SETUP_0_enter_DefaultMode_from_RESET
*SFR* 0000008AH   DATA     BYTE      TL0
*SFR* 0000008BH   DATA     BYTE      TL1
*SFR* 00000089H   DATA     BYTE      TMOD
*SFR* 000000CCH   DATA     WORD      TMR2
*SFR* 000000C8H   DATA     BYTE      TMR2CN0
*SFR* 000000C8H.3 DATA     BIT       TMR2CN0_T2SPLIT
*SFR* 000000C8H   DATA     BIT       TMR2CN0_T2XCLK0
*SFR* 000000C8H.1 DATA     BIT       TMR2CN0_T2XCLK1
*SFR* 000000C8H.4 DATA     BIT       TMR2CN0_TF2CEN
*SFR* 000000C8H.7 DATA     BIT       TMR2CN0_TF2H
*SFR* 000000C8H.6 DATA     BIT       TMR2CN0_TF2L
*SFR* 000000C8H.5 DATA     BIT       TMR2CN0_TF2LEN
*SFR* 000000C8H.2 DATA     BIT       TMR2CN0_TR2
*SFR* 000000FDH   DATA     BYTE      TMR2CN1
*SFR* 000000CDH   DATA     BYTE      TMR2H
*SFR* 000000CCH   DATA     BYTE      TMR2L
*SFR* 000000CAH   DATA     WORD      TMR2RL
*SFR* 000000CBH   DATA     BYTE      TMR2RLH
*SFR* 000000CAH   DATA     BYTE      TMR2RLL
*SFR* 00000094H   DATA     WORD      TMR3
*SFR* 00000091H   DATA     BYTE      TMR3CN0
*SFR* 000000FEH   DATA     BYTE      TMR3CN1
*SFR* 00000095H   DATA     BYTE      TMR3H
*SFR* 00000094H   DATA     BYTE      TMR3L
*SFR* 00000092H   DATA     WORD      TMR3RL
*SFR* 00000093H   DATA     BYTE      TMR3RLH
*SFR* 00000092H   DATA     BYTE      TMR3RLL
*SFR* 000000A4H   DATA     WORD      TMR4
*SFR* 00000098H   DATA     BYTE      TMR4CN0
*SFR* 00000098H.3 DATA     BIT       TMR4CN0_T4SPLIT
*SFR* 00000098H   DATA     BIT       TMR4CN0_T4XCLK0
*SFR* 00000098H.1 DATA     BIT       TMR4CN0_T4XCLK1
*SFR* 00000098H.4 DATA     BIT       TMR4CN0_TF4CEN
*SFR* 00000098H.7 DATA     BIT       TMR4CN0_TF4H
*SFR* 00000098H.6 DATA     BIT       TMR4CN0_TF4L
*SFR* 00000098H.5 DATA     BIT       TMR4CN0_TF4LEN
*SFR* 00000098H.2 DATA     BIT       TMR4CN0_TR4
*SFR* 000000FFH   DATA     BYTE      TMR4CN1
*SFR* 000000A5H   DATA     BYTE      TMR4H
*SFR* 000000A4H   DATA     BYTE      TMR4L
*SFR* 000000A2H   DATA     WORD      TMR4RL
*SFR* 000000A3H   DATA     BYTE      TMR4RLH
*SFR* 000000A2H   DATA     BYTE      TMR4RLL
*SFR* 0000009DH   DATA     BYTE      UART1FCN0
*SFR* 000000D8H   DATA     BYTE      UART1FCN1
*SFR* 000000D8H.3 DATA     BIT       UART1FCN1_RFRQ
*SFR* 000000D8H   DATA     BIT       UART1FCN1_RIE
*SFR* 000000D8H.1 DATA     BIT       UART1FCN1_RXTO0
*SFR* 000000D8H.2 DATA     BIT       UART1FCN1_RXTO1
*SFR* 000000D8H.7 DATA     BIT       UART1FCN1_TFRQ
*SFR* 000000D8H.4 DATA     BIT       UART1FCN1_TIE
*SFR* 000000D8H.5 DATA     BIT       UART1FCN1_TXHOLD
*SFR* 000000D8H.6 DATA     BIT       UART1FCN1_TXNF
*SFR* 000000FAH   DATA     BYTE      UART1FCT
*SFR* 0000009EH   DATA     BYTE      UART1LIN
*SFR* 000000AEH   DATA     BYTE      USB0ADR
*SFR* 000000B2H   DATA     BYTE      USB0AEC
LX51 LINKER/LOCATER V4.66.30.0                                                        11/09/2016  15:43:41  PAGE 13


*SFR* 000000B6H   DATA     BYTE      USB0CDCF
*SFR* 000000BEH   DATA     BYTE      USB0CDCN
*SFR* 000000BFH   DATA     BYTE      USB0CDSTA
*SFR* 000000B5H   DATA     BYTE      USB0CF
*SFR* 000000AFH   DATA     BYTE      USB0DAT
*SFR* 000000B3H   DATA     BYTE      USB0XCN
*SFR* 000000FFH   DATA     BYTE      VDM0CN
      01000864H   CODE     ---       WDT_0_enter_DefaultMode_from_RESET
*SFR* 00000097H   DATA     BYTE      WDTCN
*SFR* 000000E1H   DATA     BYTE      XBR0
*SFR* 000000E2H   DATA     BYTE      XBR1
*SFR* 000000E3H   DATA     BYTE      XBR2



SYMBOL TABLE OF MODULE:  DALI_.OMF.CRBUILD (DALI)

      VALUE       REP       CLASS    TYPE      SYMBOL NAME
      ====================================================
      ---         MODULE    ---      ---       DALI
      00000020H.3 PUBLIC    BIT      BIT       _1stQ
      00000020H.2 PUBLIC    BIT      BIT       _4thQ
      00000020H.1 PUBLIC    BIT      BIT       _3rdQ
      00000020H.0 PUBLIC    BIT      BIT       _2ndQ
      00000019H   PUBLIC    DATA     BYTE      BusQuietCounter
      0100001EH   PUBLIC    CODE     ---       _DaliRXDecoding
      0100084EH   PUBLIC    CODE     ---       ClearDaliRXData
      0100085DH   PUBLIC    CODE     ---       GetDaliRXData
      01000896H   PUBLIC    CODE     ---       DisableInt1
      01000856H   PUBLIC    CODE     ---       EnableInt1
      010007EDH   PUBLIC    CODE     ---       _SetDaliInputPinPolarity
      01000815H   PUBLIC    CODE     ---       GetDaliDataReadyFlag
      01000846H   PUBLIC    CODE     ---       ClearDaliDataReadyFlag
      010008A6H   PUBLIC    CODE     ---       GetBusQuietCounter
      01000892H   PUBLIC    CODE     ---       ClearBusQuietCounter
      010008A3H   PUBLIC    CODE     ---       IncBusQuietCounter
      0100077FH   PUBLIC    CODE     ---       IsDaliBusQuiet
      01000884H   PUBLIC    CODE     ---       StopDaliRxTimer
      0100088EH   PUBLIC    CODE     ---       StartDaliRxTimer
      0100087EH   PUBLIC    CODE     ---       StopnDisableDaliRxTimer
      010007BBH   PUBLIC    CODE     ---       _ReloadnStartDaliRxTimer
      01000810H   PUBLIC    CODE     ---       _ReloadDaliRxTimer
      0100088AH   PUBLIC    CODE     ---       DisableDaliRxTimerInt
      01000016H   PUBLIC    CODE     ---       EnableDaliRxTimerInt
      010008A0H   PUBLIC    CODE     ---       GetDaliIntputPin
      01000713H   PUBLIC    CODE     ---       isbitHighorLow
      01000576H   PUBLIC    CODE     ---       bitDemodulation
      010004B0H   PUBLIC    CODE     ---       stopconditionbitverify
      01000431H   PUBLIC    CODE     ---       startconditionbitDemodulation
      0100089DH   PUBLIC    CODE     ---       ClearDaliOutputPin
      0100089AH   PUBLIC    CODE     ---       SetDaliOutputPin
      01000878H   PUBLIC    CODE     ---       ClearDaliFlags
      010007F8H   PUBLIC    CODE     ---       GetDaliStopFlag
      0100083EH   PUBLIC    CODE     ---       ClearDaliStopFlag
      01000836H   PUBLIC    CODE     ---       SetDaliStopFlag
      010006D4H   PUBLIC    CODE     ---       _DaliTXFrame
      010007A8H   PUBLIC    CODE     ---       DaliFrameStop
      01000799H   PUBLIC    CODE     ---       DaliFrameStart
      0100000EH   PUBLIC    CODE     ---       _ReloadDaliTxTimer
      01000521H   PUBLIC    CODE     ---       ManchesterTXHandler
      010002FAH   PUBLIC    CODE     ---       _ManchesterEncoder
      0100082EH   PUBLIC    CODE     ---       GetMDOutput
LX51 LINKER/LOCATER V4.66.30.0                                                        11/09/2016  15:43:41  PAGE 14


      01000826H   PUBLIC    CODE     ---       SetMDOutput
      01000872H   PUBLIC    CODE     ---       GetBusyFlag
      0100081EH   PUBLIC    CODE     ---       ClearBusyFlag
      01000003H   PUBLIC    CODE     ---       SetBusyFlag
      000000A2H   SFRSYM    DATA     BYTE      SPI0CKR
      00000080H   SFRSYM    DATA     BYTE      P0
      000000C8H.6 SFRSYM    DATA     BIT       SCON1_PERR
      000000D0H.2 SFRSYM    DATA     BIT       PSW_OV
      00000090H   SFRSYM    DATA     BYTE      P1
      000000F8H.1 SFRSYM    DATA     BIT       SPI0CN0_TXNF
      00000097H   SFRSYM    DATA     BYTE      WDTCN
      000000A0H   SFRSYM    DATA     BYTE      P2
      000000B0H   SFRSYM    DATA     BYTE      P3
      000000BCH   SFRSYM    DATA     BYTE      ADC0CF
      000000C0H.7 SFRSYM    DATA     BIT       SMB0CN0_MASTER
      000000F9H   SFRSYM    DATA     WORD      PCA0
      000000E6H   SFRSYM    DATA     BYTE      EIE1
      000000C0H.1 SFRSYM    DATA     BIT       SMB0CN0_ACK
      000000B3H   SFRSYM    DATA     BYTE      USB0XCN
      000000CEH   SFRSYM    DATA     BYTE      EIE2
      00000090H.4 SFRSYM    DATA     BIT       LED1
      00000090H.5 SFRSYM    DATA     BIT       LED2
      0000008FH   SFRSYM    DATA     BYTE      PSCTL
      00000090H.6 SFRSYM    DATA     BIT       LED3
      000000E4H   SFRSYM    DATA     BYTE      IT01CF
      000000B0H.1 SFRSYM    DATA     BIT       LED4
      000000C0H.6 SFRSYM    DATA     BIT       SMB0CN0_TXMODE
      000000ADH   SFRSYM    DATA     BYTE      DERIVID
      00000080H.4 SFRSYM    DATA     BIT       LED5
      000000A7H   SFRSYM    DATA     BYTE      SFRPAGE
      000000A4H   SFRSYM    DATA     BYTE      P0MDOUT
      000000BFH   SFRSYM    DATA     BYTE      USB0CDSTA
      000000A5H   SFRSYM    DATA     BYTE      P1MDOUT
      000000E8H.5 SFRSYM    DATA     BIT       ADC0CN0_ADINT
      000000CBH   SFRSYM    DATA     BYTE      TMR2RLH
      000000A6H   SFRSYM    DATA     BYTE      P2MDOUT
      000000A8H   SFRSYM    DATA     BYTE      IE
      00000093H   SFRSYM    DATA     BYTE      TMR3RLH
      0000009CH   SFRSYM    DATA     BYTE      P3MDOUT
      000000A3H   SFRSYM    DATA     BYTE      TMR4RLH
      000000F3H   SFRSYM    DATA     BYTE      EIP1
      000000F4H   SFRSYM    DATA     BYTE      EIP2
      00000098H.2 SFRSYM    DATA     BIT       SCON0_RB8
      000000CAH   SFRSYM    DATA     BYTE      TMR2RLL
      000000FCH   SFRSYM    DATA     BYTE      PCA0CPH0
      00000080H.7 SFRSYM    DATA     BIT       DALI_IN
      00000092H   SFRSYM    DATA     BYTE      TMR3RLL
      000000EAH   SFRSYM    DATA     BYTE      PCA0CPH1
      00000098H.3 SFRSYM    DATA     BIT       SCON0_TB8
      000000F0H   SFRSYM    DATA     BIT       B_B0
      00000082H   SFRSYM    DATA     WORD      DP
      000000A2H   SFRSYM    DATA     BYTE      TMR4RLL
      000000ECH   SFRSYM    DATA     BYTE      PCA0CPH2
      000000F0H.1 SFRSYM    DATA     BIT       B_B1
      000000C3H   SFRSYM    DATA     WORD      ADC0GT
      000000BDH   SFRSYM    DATA     BYTE      I2C0SLAD
      000000D8H.3 SFRSYM    DATA     BIT       UART1FCN1_RFRQ
      000000F0H.2 SFRSYM    DATA     BIT       B_B2
      000000CFH   SFRSYM    DATA     BYTE      SFRPGCN
      000000FBH   SFRSYM    DATA     BYTE      PCA0CPL0
      000000F0H.3 SFRSYM    DATA     BIT       B_B3
      000000D9H   SFRSYM    DATA     BYTE      PCA0MD
LX51 LINKER/LOCATER V4.66.30.0                                                        11/09/2016  15:43:41  PAGE 15


      000000DAH   SFRSYM    DATA     BYTE      PCA0CPM0
      000000E9H   SFRSYM    DATA     BYTE      PCA0CPL1
      000000D8H.7 SFRSYM    DATA     BIT       UART1FCN1_TFRQ
      000000F0H.4 SFRSYM    DATA     BIT       B_B4
      000000DBH   SFRSYM    DATA     BYTE      PCA0CPM1
      000000EBH   SFRSYM    DATA     BYTE      PCA0CPL2
      000000F0H.5 SFRSYM    DATA     BIT       B_B5
      000000DCH   SFRSYM    DATA     BYTE      PCA0CPM2
      000000B8H   SFRSYM    DATA     BYTE      IP
      000000B9H   SFRSYM    DATA     BYTE      ADC0TK
      000000F0H.6 SFRSYM    DATA     BIT       B_B6
      000000C5H   SFRSYM    DATA     WORD      ADC0LT
      000000D8H.6 SFRSYM    DATA     BIT       UART1FCN1_TXNF
      00000098H.5 SFRSYM    DATA     BIT       SCON0_MCE
      000000F0H.7 SFRSYM    DATA     BIT       B_B7
      000000C3H   SFRSYM    DATA     BYTE      SMB0FCN0
      000000E1H   SFRSYM    DATA     BYTE      XBR0
      000000C4H   SFRSYM    DATA     BYTE      SMB0FCN1
      000000C1H   SFRSYM    DATA     BYTE      SMB0CF
      000000E2H   SFRSYM    DATA     BYTE      XBR1
      000000C1H   SFRSYM    DATA     BYTE      PFE0CN
      000000E7H   SFRSYM    DATA     BYTE      EMI0CN
      000000C0H.5 SFRSYM    DATA     BIT       SMB0CN0_STA
      000000E3H   SFRSYM    DATA     BYTE      XBR2
      000000BBH   SFRSYM    DATA     BYTE      ADC0MX
      000000E0H   SFRSYM    DATA     BIT       ACC_ACC0
      000000D1H   SFRSYM    DATA     BYTE      REF0CN
      0000008EH   SFRSYM    DATA     BYTE      CKCON0
      000000E0H.1 SFRSYM    DATA     BIT       ACC_ACC1
      000000C9H   SFRSYM    DATA     BYTE      REG0CN
      000000DDH   SFRSYM    DATA     BYTE      CRC0IN
      000000A6H   SFRSYM    DATA     BYTE      CKCON1
      000000C8H.2 SFRSYM    DATA     BIT       TMR2CN0_TR2
      000000E0H.2 SFRSYM    DATA     BIT       ACC_ACC2
      000000C6H   SFRSYM    DATA     BYTE      REG1CN
      000000E0H.3 SFRSYM    DATA     BIT       ACC_ACC3
      00000081H   SFRSYM    DATA     BYTE      SP
      0000009DH   SFRSYM    DATA     BYTE      CMP0MD
      000000E0H.4 SFRSYM    DATA     BIT       ACC_ACC4
      000000B1H   SFRSYM    DATA     BYTE      LFO0CN
      000000ABH   SFRSYM    DATA     BYTE      CMP1MD
      000000D8H   SFRSYM    DATA     BIT       PCA0CN0_CCF0
      000000E0H.5 SFRSYM    DATA     BIT       ACC_ACC5
      000000B5H   SFRSYM    DATA     BYTE      USB0CF
      00000098H.2 SFRSYM    DATA     BIT       TMR4CN0_TR4
      000000D8H.1 SFRSYM    DATA     BIT       PCA0CN0_CCF1
      000000E0H.6 SFRSYM    DATA     BIT       ACC_ACC6
      000000CCH   SFRSYM    DATA     WORD      TMR2
      0000009AH   SFRSYM    DATA     BYTE      SPI0FCN0
      000000D8H.2 SFRSYM    DATA     BIT       PCA0CN0_CCF2
      000000E0H.7 SFRSYM    DATA     BIT       ACC_ACC7
      00000094H   SFRSYM    DATA     WORD      TMR3
      0000009BH   SFRSYM    DATA     BYTE      SPI0FCN1
      000000A4H   SFRSYM    DATA     WORD      TMR4
      00000094H   SFRSYM    DATA     BYTE      SBCON1
      000000C0H.3 SFRSYM    DATA     BIT       SMB0CN0_ACKRQ
      000000FFH   SFRSYM    DATA     BYTE      VDM0CN
      000000F1H   SFRSYM    DATA     BYTE      P0MDIN
      00000098H.4 SFRSYM    DATA     BIT       SCON0_REN
      000000ACH   SFRSYM    DATA     BYTE      SMB0TC
      000000F2H   SFRSYM    DATA     BYTE      P1MDIN
      000000C8H.4 SFRSYM    DATA     BIT       SCON1_REN
LX51 LINKER/LOCATER V4.66.30.0                                                        11/09/2016  15:43:41  PAGE 16


      000000F3H   SFRSYM    DATA     BYTE      P2MDIN
      000000C0H.4 SFRSYM    DATA     BIT       SMB0CN0_STO
      000000B6H   SFRSYM    DATA     BYTE      USB0CDCF
      000000F4H   SFRSYM    DATA     BYTE      P3MDIN
      000000B9H   SFRSYM    DATA     BYTE      I2C0STAT
      000000BBH   SFRSYM    DATA     BYTE      I2C0DOUT
      00000096H   SFRSYM    DATA     BYTE      SBRLH1
      000000FEH   SFRSYM    DATA     BYTE      P0MASK
      000000D8H.5 SFRSYM    DATA     BIT       UART1FCN1_TXHOLD
      000000EEH   SFRSYM    DATA     BYTE      P1MASK
      000000FCH   SFRSYM    DATA     BYTE      P2MASK
      000000D0H.3 SFRSYM    DATA     BIT       PSW_RS0
      000000D8H.7 SFRSYM    DATA     BIT       PCA0CN0_CF
      0000009EH   SFRSYM    DATA     BYTE      PCA0CENT
      000000BAH   SFRSYM    DATA     BYTE      I2C0CN0
      000000D2H   SFRSYM    DATA     BYTE      CRC0ST
      000000F8H.4 SFRSYM    DATA     BIT       SPI0CN0_RXOVRN
      000000D0H.4 SFRSYM    DATA     BIT       PSW_RS1
      00000095H   SFRSYM    DATA     BYTE      SBRLL1
      000000C8H.2 SFRSYM    DATA     BIT       SCON1_RBX
      000000C8H   SFRSYM    DATA     BIT       TMR2CN0_T2XCLK0
      000000C8H.1 SFRSYM    DATA     BIT       TMR2CN0_T2XCLK1
      000000C8H.3 SFRSYM    DATA     BIT       SCON1_TBX
      000000E8H.7 SFRSYM    DATA     BIT       ADC0CN0_ADEN
      000000BEH   SFRSYM    DATA     BYTE      USB0CDCN
      00000089H   SFRSYM    DATA     BYTE      TMOD
      00000088H   SFRSYM    DATA     BYTE      TCON
      000000CFH   SFRSYM    DATA     BYTE      CRC0FLIP
      000000D0H   SFRSYM    DATA     BIT       PSW_PARITY
      000000A8H.4 SFRSYM    DATA     BIT       IE_ES0
      0000009FH   SFRSYM    DATA     BYTE      CMP0MX
      00000098H   SFRSYM    DATA     BIT       TMR4CN0_T4XCLK0
      000000A8H.1 SFRSYM    DATA     BIT       IE_ET0
      000000AAH   SFRSYM    DATA     BYTE      CMP1MX
      00000098H.1 SFRSYM    DATA     BIT       TMR4CN0_T4XCLK1
      000000A8H.3 SFRSYM    DATA     BIT       IE_ET1
      000000D4H   SFRSYM    DATA     BYTE      P0SKIP
      000000D8H   SFRSYM    DATA     BIT       UART1FCN1_RIE
      000000A8H.5 SFRSYM    DATA     BIT       IE_ET2
      000000D5H   SFRSYM    DATA     BYTE      P1SKIP
      000000CCH   SFRSYM    DATA     BYTE      P2SKIP
      000000E8H   SFRSYM    DATA     BYTE      ADC0CN0
      000000D8H.4 SFRSYM    DATA     BIT       UART1FCN1_TIE
      000000A8H   SFRSYM    DATA     BIT       IE_EX0
      000000B2H   SFRSYM    DATA     BYTE      ADC0CN1
      000000D8H.6 SFRSYM    DATA     BIT       PCA0CN0_CR
      000000A8H.2 SFRSYM    DATA     BIT       IE_EX1
      000000C8H.7 SFRSYM    DATA     BIT       SCON1_OVR
      00000098H.7 SFRSYM    DATA     BIT       SCON0_SMODE
      000000B5H   SFRSYM    DATA     BYTE      DEVICEID
      000000A9H   SFRSYM    DATA     BYTE      CLKSEL
      000000F8H   SFRSYM    DATA     BIT       SPI0CN0_SPIEN
      000000F0H   SFRSYM    DATA     BYTE      B
      000000BEH   SFRSYM    DATA     BYTE      ADC0H
      000000E8H.6 SFRSYM    DATA     BIT       ADC0CN0_ADBMEN
      000000CAH   SFRSYM    DATA     WORD      TMR2RL
      000000BDH   SFRSYM    DATA     BYTE      ADC0L
      00000092H   SFRSYM    DATA     WORD      TMR3RL
      000000A2H   SFRSYM    DATA     WORD      TMR4RL
      000000D8H   SFRSYM    DATA     BYTE      PCA0CN0
      000000E0H   SFRSYM    DATA     BYTE      ACC
      000000FBH   SFRSYM    DATA     WORD      PCA0CP0
LX51 LINKER/LOCATER V4.66.30.0                                                        11/09/2016  15:43:41  PAGE 17


      000000E9H   SFRSYM    DATA     WORD      PCA0CP1
      000000EBH   SFRSYM    DATA     WORD      PCA0CP2
      000000BCH   SFRSYM    DATA     BYTE      I2C0DIN
      000000CEH   SFRSYM    DATA     BYTE      CRC0CN0
      0000008CH   SFRSYM    DATA     BYTE      TH0
      00000086H   SFRSYM    DATA     BYTE      CRC0CN1
      00000080H.2 SFRSYM    DATA     BIT       PB0_SW
      000000B8H.4 SFRSYM    DATA     BIT       IP_PS0
      000000FAH   SFRSYM    DATA     BYTE      UART1FCT
      0000008DH   SFRSYM    DATA     BYTE      TH1
      000000FAH   SFRSYM    DATA     BYTE      PCA0H
      000000F5H   SFRSYM    DATA     BYTE      I2C0FCT
      000000B8H.1 SFRSYM    DATA     BIT       IP_PT0
      000000B8H.3 SFRSYM    DATA     BIT       IP_PT1
      000000C0H.2 SFRSYM    DATA     BIT       SMB0CN0_ARBLOST
      000000B8H.5 SFRSYM    DATA     BIT       IP_PT2
      0000008AH   SFRSYM    DATA     BYTE      TL0
      000000D0H.5 SFRSYM    DATA     BIT       PSW_F0
      000000A8H.6 SFRSYM    DATA     BIT       IE_ESPI0
      0000008BH   SFRSYM    DATA     BYTE      TL1
      000000F9H   SFRSYM    DATA     BYTE      PCA0L
      000000C0H   SFRSYM    DATA     BIT       SMB0CN0_SI
      000000D0H.1 SFRSYM    DATA     BIT       PSW_F1
      00000080H   SFRSYM    DATA     BIT       P0_B0
      000000B8H   SFRSYM    DATA     BIT       IP_PX0
      00000090H   SFRSYM    DATA     BIT       P1_B0
      00000080H.1 SFRSYM    DATA     BIT       P0_B1
      000000B8H.2 SFRSYM    DATA     BIT       IP_PX1
      0000009EH   SFRSYM    DATA     BYTE      UART1LIN
      0000009BH   SFRSYM    DATA     BYTE      CMP0CN0
      00000088H.1 SFRSYM    DATA     BIT       TCON_IE0
      000000A0H   SFRSYM    DATA     BIT       P2_B0
      00000090H.1 SFRSYM    DATA     BIT       P1_B1
      00000080H.2 SFRSYM    DATA     BIT       P0_B2
      000000BFH   SFRSYM    DATA     BYTE      CMP1CN0
      00000099H   SFRSYM    DATA     BYTE      CMP0CN1
      00000088H.3 SFRSYM    DATA     BIT       TCON_IE1
      000000B0H   SFRSYM    DATA     BIT       P3_B0
      000000A0H.1 SFRSYM    DATA     BIT       P2_B1
      00000090H.2 SFRSYM    DATA     BIT       P1_B2
      00000080H.3 SFRSYM    DATA     BIT       P0_B3
      000000C0H   SFRSYM    DATA     BYTE      SMB0CN0
      000000ACH   SFRSYM    DATA     BYTE      CMP1CN1
      000000B0H.1 SFRSYM    DATA     BIT       P3_B1
      000000A0H.2 SFRSYM    DATA     BIT       P2_B2
      00000090H.3 SFRSYM    DATA     BIT       P1_B3
      00000080H.4 SFRSYM    DATA     BIT       P0_B4
      000000A0H.3 SFRSYM    DATA     BIT       P2_B3
      00000090H.4 SFRSYM    DATA     BIT       P1_B4
      00000080H.5 SFRSYM    DATA     BIT       P0_B5
      000000D8H.1 SFRSYM    DATA     BIT       UART1FCN1_RXTO0
      00000090H.5 SFRSYM    DATA     BIT       P1_B5
      00000080H.6 SFRSYM    DATA     BIT       P0_B6
      000000F5H   SFRSYM    DATA     BYTE      EIP1H
      000000D8H.2 SFRSYM    DATA     BIT       UART1FCN1_RXTO1
      00000090H.6 SFRSYM    DATA     BIT       P1_B6
      00000080H.7 SFRSYM    DATA     BIT       P0_B7
      000000C5H   SFRSYM    DATA     BYTE      SMB0RXLN
      000000F6H   SFRSYM    DATA     BYTE      EIP2H
      00000090H.7 SFRSYM    DATA     BIT       P1_B7
      00000083H   SFRSYM    DATA     BYTE      DPH
      000000C4H   SFRSYM    DATA     BYTE      ADC0GTH
LX51 LINKER/LOCATER V4.66.30.0                                                        11/09/2016  15:43:41  PAGE 18


      000000C8H.7 SFRSYM    DATA     BIT       TMR2CN0_TF2H
      000000C8H.3 SFRSYM    DATA     BIT       TMR2CN0_T2SPLIT
      000000D0H.6 SFRSYM    DATA     BIT       PSW_AC
      000000F8H   SFRSYM    DATA     BYTE      SPI0CN0
      000000C7H   SFRSYM    DATA     BYTE      HFO0CAL
      00000088H.5 SFRSYM    DATA     BIT       TCON_TF0
      00000098H   SFRSYM    DATA     BIT       SCON0_RI
      000000D6H   SFRSYM    DATA     BYTE      HFO1CAL
      00000082H   SFRSYM    DATA     BYTE      DPL
      00000088H.7 SFRSYM    DATA     BIT       TCON_TF1
      000000C8H   SFRSYM    DATA     BIT       SCON1_RI
      00000099H   SFRSYM    DATA     BYTE      SBUF0
      00000087H   SFRSYM    DATA     BYTE      PCON0
      000000F2H   SFRSYM    DATA     BYTE      IPH
      000000C3H   SFRSYM    DATA     BYTE      ADC0GTL
      00000098H.7 SFRSYM    DATA     BIT       TMR4CN0_TF4H
      00000098H.3 SFRSYM    DATA     BIT       TMR4CN0_T4SPLIT
      000000C8H.6 SFRSYM    DATA     BIT       TMR2CN0_TF2L
      00000098H.1 SFRSYM    DATA     BIT       SCON0_TI
      000000E8H   SFRSYM    DATA     BIT       ADC0CN0_ADCM0
      00000092H   SFRSYM    DATA     BYTE      SBUF1
      0000009AH   SFRSYM    DATA     BYTE      PCON1
      000000C6H   SFRSYM    DATA     BYTE      ADC0LTH
      00000088H   SFRSYM    DATA     BIT       TCON_IT0
      000000C8H.1 SFRSYM    DATA     BIT       SCON1_TI
      000000E8H.1 SFRSYM    DATA     BIT       ADC0CN0_ADCM1
      000000EFH   SFRSYM    DATA     BYTE      RSTSRC
      000000FDH   SFRSYM    DATA     BYTE      P0MAT
      000000DEH   SFRSYM    DATA     BYTE      CRC0DAT
      00000088H.2 SFRSYM    DATA     BIT       TCON_IT1
      000000E8H.2 SFRSYM    DATA     BIT       ADC0CN0_ADCM2
      000000D7H   SFRSYM    DATA     BYTE      SFRSTACK
      00000098H   SFRSYM    DATA     BYTE      SCON0
      000000F6H   SFRSYM    DATA     BYTE      PRTDRV
      000000EDH   SFRSYM    DATA     BYTE      P1MAT
      000000E8H.3 SFRSYM    DATA     BIT       ADC0CN0_ADWINT
      00000095H   SFRSYM    DATA     WORD      SBRL1
      000000B2H   SFRSYM    DATA     BYTE      USB0AEC
      00000093H   SFRSYM    DATA     BYTE      SMOD1
      000000C8H   SFRSYM    DATA     BYTE      SCON1
      000000FBH   SFRSYM    DATA     BYTE      P2MAT
      00000098H.6 SFRSYM    DATA     BIT       TMR4CN0_TF4L
      000000E8H.4 SFRSYM    DATA     BIT       ADC0CN0_ADBUSY
      000000D6H   SFRSYM    DATA     BYTE      SMB0ADM
      000000C5H   SFRSYM    DATA     BYTE      ADC0LTL
      000000F8H.5 SFRSYM    DATA     BIT       SPI0CN0_MODF
      000000B8H.6 SFRSYM    DATA     BIT       IP_PSPI0
      0000009CH   SFRSYM    DATA     BYTE      PCA0CLR
      000000C8H   SFRSYM    DATA     BYTE      TMR2CN0
      00000091H   SFRSYM    DATA     BYTE      TMR3CN0
      000000FDH   SFRSYM    DATA     BYTE      TMR2CN1
      00000098H   SFRSYM    DATA     BYTE      TMR4CN0
      000000FEH   SFRSYM    DATA     BYTE      TMR3CN1
      000000FFH   SFRSYM    DATA     BYTE      TMR4CN1
      000000D7H   SFRSYM    DATA     BYTE      SMB0ADR
      00000088H.4 SFRSYM    DATA     BIT       TCON_TR0
      000000C8H.4 SFRSYM    DATA     BIT       TMR2CN0_TF2CEN
      00000088H.6 SFRSYM    DATA     BIT       TCON_TR1
      000000C2H   SFRSYM    DATA     BYTE      SMB0DAT
      000000CDH   SFRSYM    DATA     BYTE      TMR2H
      000000A1H   SFRSYM    DATA     BYTE      SPI0CFG
      00000095H   SFRSYM    DATA     BYTE      TMR3H
LX51 LINKER/LOCATER V4.66.30.0                                                        11/09/2016  15:43:41  PAGE 19


      000000EFH   SFRSYM    DATA     BYTE      HFOCN
      000000D3H   SFRSYM    DATA     BYTE      CRC0CNT
      000000A5H   SFRSYM    DATA     BYTE      TMR4H
      00000098H.4 SFRSYM    DATA     BIT       TMR4CN0_TF4CEN
      000000EFH   SFRSYM    DATA     BYTE      SMB0FCT
      00000096H   SFRSYM    DATA     BYTE      PCA0POL
      000000CCH   SFRSYM    DATA     BYTE      TMR2L
      000000F8H.7 SFRSYM    DATA     BIT       SPI0CN0_SPIF
      000000AEH   SFRSYM    DATA     BYTE      USB0ADR
      00000094H   SFRSYM    DATA     BYTE      TMR3L
      000000DFH   SFRSYM    DATA     BYTE      ADC0PWR
      00000080H   SFRSYM    DATA     BIT       DALI_OUT
      000000A0H.3 SFRSYM    DATA     BIT       EFM_DISP_ENABLE
      000000A8H.7 SFRSYM    DATA     BIT       IE_EA
      000000A4H   SFRSYM    DATA     BYTE      TMR4L
      000000AFH   SFRSYM    DATA     BYTE      USB0DAT
      000000C8H.5 SFRSYM    DATA     BIT       TMR2CN0_TF2LEN
      000000F8H.6 SFRSYM    DATA     BIT       SPI0CN0_WCOL
      000000F8H.2 SFRSYM    DATA     BIT       SPI0CN0_NSSMD0
      000000D0H.7 SFRSYM    DATA     BIT       PSW_CY
      0000009DH   SFRSYM    DATA     BYTE      UART1FCN0
      000000A3H   SFRSYM    DATA     BYTE      SPI0DAT
      000000ADH   SFRSYM    DATA     BYTE      I2C0FCN0
      000000F8H.3 SFRSYM    DATA     BIT       SPI0CN0_NSSMD1
      000000BDH   SFRSYM    DATA     WORD      ADC0
      000000D8H   SFRSYM    DATA     BYTE      UART1FCN1
      000000ABH   SFRSYM    DATA     BYTE      I2C0FCN1
      00000098H.5 SFRSYM    DATA     BIT       TMR4CN0_TF4LEN
      000000D0H   SFRSYM    DATA     BYTE      PSW
      000000F7H   SFRSYM    DATA     BYTE      PCA0PWM
      000000F7H   SFRSYM    DATA     BYTE      SPI0FCT
      000000B6H   SFRSYM    DATA     BYTE      REVID
      000000B7H   SFRSYM    DATA     BYTE      FLKEY
      000000B3H   SFRSYM    DATA     BYTE      ADC0AC
      02000006H   SYMBOL    XDATA    BYTE      ErrorLog
      02000007H   SYMBOL    XDATA    ---       DaliRXReg
      02000009H   SYMBOL    XDATA    ---       DaliFlags

      01000003H   BLOCK     CODE     ---       LVL=0
      01000003H   LINE      CODE     ---       #67
      01000003H   LINE      CODE     ---       #68
      01000003H   LINE      CODE     ---       #69
      0100000AH   LINE      CODE     ---       #70
      ---         BLOCKEND  ---      ---       LVL=0

      0100081EH   BLOCK     CODE     ---       LVL=0
      0100081EH   LINE      CODE     ---       #72
      0100081EH   LINE      CODE     ---       #73
      0100081EH   LINE      CODE     ---       #74
      01000825H   LINE      CODE     ---       #75
      ---         BLOCKEND  ---      ---       LVL=0

      01000872H   BLOCK     CODE     ---       LVL=0
      01000872H   LINE      CODE     ---       #77
      01000872H   LINE      CODE     ---       #78
      01000872H   LINE      CODE     ---       #79
      01000877H   LINE      CODE     ---       #80
      ---         BLOCKEND  ---      ---       LVL=0

      01000826H   BLOCK     CODE     ---       LVL=0
      01000826H   LINE      CODE     ---       #84
      01000826H   LINE      CODE     ---       #85
LX51 LINKER/LOCATER V4.66.30.0                                                        11/09/2016  15:43:41  PAGE 20


      01000826H   LINE      CODE     ---       #86
      0100082DH   LINE      CODE     ---       #87
      ---         BLOCKEND  ---      ---       LVL=0

      0100082EH   BLOCK     CODE     ---       LVL=0
      0100082EH   LINE      CODE     ---       #94
      0100082EH   LINE      CODE     ---       #95
      0100082EH   LINE      CODE     ---       #96
      01000835H   LINE      CODE     ---       #97
      ---         BLOCKEND  ---      ---       LVL=0

      010002FAH   BLOCK     CODE     ---       LVL=0
      00000007H   SYMBOL    DATA     BYTE      input
      010002FAH   BLOCK     CODE     NEAR LAB  LVL=1
      00000015H   SYMBOL    DATA     ---       Input
      00000016H   SYMBOL    DATA     CHAR      counter
      ---         BLOCKEND  ---      ---       LVL=1
      010002FAH   LINE      CODE     ---       #100
      010002FAH   LINE      CODE     ---       #101
      010002FAH   LINE      CODE     ---       #106
      010002FDH   LINE      CODE     ---       #108
      01000302H   LINE      CODE     ---       #109
      01000302H   LINE      CODE     ---       #110
      01000304H   LINE      CODE     ---       #111
      01000304H   LINE      CODE     ---       #113
      01000310H   LINE      CODE     ---       #114
      01000310H   LINE      CODE     ---       #115
      01000315H   LINE      CODE     ---       #117
      0100031AH   LINE      CODE     ---       #118
      0100031AH   LINE      CODE     ---       #119
      0100034BH   LINE      CODE     ---       #121
      0100034BH   LINE      CODE     ---       #122
      0100034BH   LINE      CODE     ---       #123
      01000351H   LINE      CODE     ---       #124
      01000351H   LINE      CODE     ---       #125
      01000353H   LINE      CODE     ---       #126
      01000357H   LINE      CODE     ---       #127
      01000357H   LINE      CODE     ---       #128
      01000359H   LINE      CODE     ---       #129
      0100035FH   LINE      CODE     ---       #130
      0100035FH   LINE      CODE     ---       #131
      01000361H   LINE      CODE     ---       #132
      01000369H   LINE      CODE     ---       #133
      01000369H   LINE      CODE     ---       #134
      0100036BH   LINE      CODE     ---       #135
      01000374H   LINE      CODE     ---       #136
      01000374H   LINE      CODE     ---       #137
      01000376H   LINE      CODE     ---       #138
      0100037DH   LINE      CODE     ---       #139
      0100037DH   LINE      CODE     ---       #140
      0100037FH   LINE      CODE     ---       #141
      01000387H   LINE      CODE     ---       #142
      01000387H   LINE      CODE     ---       #143
      01000389H   LINE      CODE     ---       #144
      0100039BH   LINE      CODE     ---       #145
      0100039EH   LINE      CODE     ---       #146
      010003A1H   LINE      CODE     ---       #147
      010003A1H   LINE      CODE     ---       #150
      010003A1H   LINE      CODE     ---       #152
      010003A1H   LINE      CODE     ---       #154
      010003A4H   LINE      CODE     ---       #156
      ---         BLOCKEND  ---      ---       LVL=0
LX51 LINKER/LOCATER V4.66.30.0                                                        11/09/2016  15:43:41  PAGE 21



      01000521H   BLOCK     CODE     ---       LVL=0
      01000521H   BLOCK     CODE     NEAR LAB  LVL=1
      00000017H   SYMBOL    DATA     BYTE      counter
      00000018H   SYMBOL    DATA     BYTE      evcounter
      ---         BLOCKEND  ---      ---       LVL=1
      01000521H   LINE      CODE     ---       #162
      01000521H   LINE      CODE     ---       #163
      01000521H   LINE      CODE     ---       #167
      01000526H   LINE      CODE     ---       #168
      01000526H   LINE      CODE     ---       #169
      0100052EH   LINE      CODE     ---       #170
      01000531H   LINE      CODE     ---       #171
      01000536H   LINE      CODE     ---       #172
      01000536H   LINE      CODE     ---       #175
      0100053AH   LINE      CODE     ---       #176
      0100053AH   LINE      CODE     ---       #177
      01000544H   LINE      CODE     ---       #178
      01000547H   LINE      CODE     ---       #179
      01000549H   LINE      CODE     ---       #180
      0100054AH   LINE      CODE     ---       #182
      0100054AH   LINE      CODE     ---       #184
      01000554H   LINE      CODE     ---       #185
      01000557H   LINE      CODE     ---       #186
      0100055AH   LINE      CODE     ---       #188
      0100055AH   LINE      CODE     ---       #189
      0100055AH   LINE      CODE     ---       #191
      0100055CH   LINE      CODE     ---       #193
      0100055CH   LINE      CODE     ---       #194
      01000569H   LINE      CODE     ---       #195
      01000569H   LINE      CODE     ---       #196
      0100056CH   LINE      CODE     ---       #197
      0100056FH   LINE      CODE     ---       #198
      01000572H   LINE      CODE     ---       #199
      01000575H   LINE      CODE     ---       #200
      01000575H   LINE      CODE     ---       #201
      01000575H   LINE      CODE     ---       #202
      01000575H   LINE      CODE     ---       #204
      ---         BLOCKEND  ---      ---       LVL=0

      0100000EH   BLOCK     CODE     ---       LVL=0
      00000007H   SYMBOL    DATA     BYTE      reloadH
      00000005H   SYMBOL    DATA     BYTE      reloadL
      0100000EH   LINE      CODE     ---       #214
      0100000EH   LINE      CODE     ---       #215
      0100000EH   LINE      CODE     ---       #216
      01000010H   LINE      CODE     ---       #217
      01000012H   LINE      CODE     ---       #218
      ---         BLOCKEND  ---      ---       LVL=0

      01000799H   BLOCK     CODE     ---       LVL=0
      01000799H   LINE      CODE     ---       #243
      01000799H   LINE      CODE     ---       #244
      01000799H   LINE      CODE     ---       #245
      0100079CH   LINE      CODE     ---       #246
      0100079FH   LINE      CODE     ---       #247
      010007A2H   LINE      CODE     ---       #248
      010007A7H   LINE      CODE     ---       #250
      ---         BLOCKEND  ---      ---       LVL=0

      010007A8H   BLOCK     CODE     ---       LVL=0
      010007A8H   LINE      CODE     ---       #252
LX51 LINKER/LOCATER V4.66.30.0                                                        11/09/2016  15:43:41  PAGE 22


      010007A8H   LINE      CODE     ---       #253
      010007A8H   LINE      CODE     ---       #254
      010007ABH   LINE      CODE     ---       #255
      010007AEH   LINE      CODE     ---       #256
      010007B1H   LINE      CODE     ---       #257
      010007B6H   LINE      CODE     ---       #259
      ---         BLOCKEND  ---      ---       LVL=0

      010006D4H   BLOCK     CODE     ---       LVL=0
      00000013H   SYMBOL    DATA     BYTE      address
      00000014H   SYMBOL    DATA     BYTE      Ddata
      010006D8H   BLOCK     CODE     NEAR LAB  LVL=1
      00000007H   SYMBOL    DATA     BYTE      States
      ---         BLOCKEND  ---      ---       LVL=1
      010006D4H   LINE      CODE     ---       #261
      010006D8H   LINE      CODE     ---       #262
      010006D8H   LINE      CODE     ---       #265
      010006DBH   LINE      CODE     ---       #266
      010006DDH   LINE      CODE     ---       #268
      010006E3H   LINE      CODE     ---       #269
      010006E3H   LINE      CODE     ---       #270
      010006F2H   LINE      CODE     ---       #271
      010006F2H   LINE      CODE     ---       #272
      010006F2H   LINE      CODE     ---       #273
      010006F5H   LINE      CODE     ---       #274
      010006F7H   LINE      CODE     ---       #275
      010006F9H   LINE      CODE     ---       #276
      010006F9H   LINE      CODE     ---       #278
      010006F9H   LINE      CODE     ---       #279
      010006FEH   LINE      CODE     ---       #280
      01000700H   LINE      CODE     ---       #281
      01000702H   LINE      CODE     ---       #282
      01000702H   LINE      CODE     ---       #284
      01000702H   LINE      CODE     ---       #285
      01000707H   LINE      CODE     ---       #286
      01000709H   LINE      CODE     ---       #287
      0100070BH   LINE      CODE     ---       #288
      0100070BH   LINE      CODE     ---       #290
      0100070BH   LINE      CODE     ---       #291
      0100070EH   LINE      CODE     ---       #292
      01000710H   LINE      CODE     ---       #293
      01000712H   LINE      CODE     ---       #294
      01000712H   LINE      CODE     ---       #296
      01000712H   LINE      CODE     ---       #297
      01000712H   LINE      CODE     ---       #299
      ---         BLOCKEND  ---      ---       LVL=0
      00000007H   SYMBOL    DATA     BYTE      States

      01000836H   BLOCK     CODE     ---       LVL=0
      01000836H   LINE      CODE     ---       #339
      01000836H   LINE      CODE     ---       #340
      01000836H   LINE      CODE     ---       #341
      0100083DH   LINE      CODE     ---       #342
      ---         BLOCKEND  ---      ---       LVL=0

      0100083EH   BLOCK     CODE     ---       LVL=0
      0100083EH   LINE      CODE     ---       #344
      0100083EH   LINE      CODE     ---       #345
      0100083EH   LINE      CODE     ---       #346
      01000845H   LINE      CODE     ---       #347
      ---         BLOCKEND  ---      ---       LVL=0

LX51 LINKER/LOCATER V4.66.30.0                                                        11/09/2016  15:43:41  PAGE 23


      010007F8H   BLOCK     CODE     ---       LVL=0
      010007F8H   LINE      CODE     ---       #349
      010007F8H   LINE      CODE     ---       #350
      010007F8H   LINE      CODE     ---       #351
      01000801H   LINE      CODE     ---       #352
      ---         BLOCKEND  ---      ---       LVL=0

      01000878H   BLOCK     CODE     ---       LVL=0
      01000878H   LINE      CODE     ---       #354
      01000878H   LINE      CODE     ---       #355
      01000878H   LINE      CODE     ---       #356
      0100087DH   LINE      CODE     ---       #357
      ---         BLOCKEND  ---      ---       LVL=0

      0100089AH   BLOCK     CODE     ---       LVL=0
      0100089AH   LINE      CODE     ---       #359
      0100089AH   LINE      CODE     ---       #360
      0100089AH   LINE      CODE     ---       #361
      0100089CH   LINE      CODE     ---       #362
      ---         BLOCKEND  ---      ---       LVL=0

      0100089DH   BLOCK     CODE     ---       LVL=0
      0100089DH   LINE      CODE     ---       #364
      0100089DH   LINE      CODE     ---       #365
      0100089DH   LINE      CODE     ---       #366
      0100089FH   LINE      CODE     ---       #367
      ---         BLOCKEND  ---      ---       LVL=0

      01000431H   BLOCK     CODE     ---       LVL=0
      01000431H   BLOCK     CODE     NEAR LAB  LVL=1
      02000000H   SYMBOL    XDATA    BYTE      bitState
      ---         BLOCKEND  ---      ---       LVL=1
      01000431H   LINE      CODE     ---       #390
      01000431H   LINE      CODE     ---       #391
      01000431H   LINE      CODE     ---       #395
      01000442H   LINE      CODE     ---       #396
      01000442H   LINE      CODE     ---       #397
      01000442H   LINE      CODE     ---       #398
      01000442H   LINE      CODE     ---       #399
      01000447H   LINE      CODE     ---       #400
      0100044CH   LINE      CODE     ---       #401
      0100044CH   LINE      CODE     ---       #403
      0100044FH   LINE      CODE     ---       #404
      01000455H   LINE      CODE     ---       #405
      01000457H   LINE      CODE     ---       #411
      01000457H   LINE      CODE     ---       #412
      01000457H   LINE      CODE     ---       #413
      01000457H   LINE      CODE     ---       #415
      01000457H   LINE      CODE     ---       #416
      01000457H   LINE      CODE     ---       #417
      0100045CH   LINE      CODE     ---       #418
      01000461H   LINE      CODE     ---       #419
      01000461H   LINE      CODE     ---       #421
      01000464H   LINE      CODE     ---       #422
      01000469H   LINE      CODE     ---       #423
      0100046CH   LINE      CODE     ---       #424
      01000472H   LINE      CODE     ---       #426
      01000474H   LINE      CODE     ---       #428
      01000474H   LINE      CODE     ---       #430
      01000474H   LINE      CODE     ---       #431
      01000476H   LINE      CODE     ---       #432
      01000476H   LINE      CODE     ---       #433
LX51 LINKER/LOCATER V4.66.30.0                                                        11/09/2016  15:43:41  PAGE 24


      01000476H   LINE      CODE     ---       #434
      01000476H   LINE      CODE     ---       #436
      01000476H   LINE      CODE     ---       #437
      01000476H   LINE      CODE     ---       #438
      0100047BH   LINE      CODE     ---       #439
      01000480H   LINE      CODE     ---       #440
      01000480H   LINE      CODE     ---       #443
      01000483H   LINE      CODE     ---       #444
      01000489H   LINE      CODE     ---       #447
      0100048BH   LINE      CODE     ---       #449
      0100048BH   LINE      CODE     ---       #451
      0100048BH   LINE      CODE     ---       #452
      0100048DH   LINE      CODE     ---       #453
      0100048DH   LINE      CODE     ---       #454
      0100048DH   LINE      CODE     ---       #456
      0100048DH   LINE      CODE     ---       #457
      0100048DH   LINE      CODE     ---       #458
      0100048DH   LINE      CODE     ---       #459
      01000492H   LINE      CODE     ---       #460
      01000497H   LINE      CODE     ---       #461
      01000497H   LINE      CODE     ---       #463
      0100049AH   LINE      CODE     ---       #464
      0100049DH   LINE      CODE     ---       #465
      010004A2H   LINE      CODE     ---       #467
      010004A5H   LINE      CODE     ---       #468
      010004A5H   LINE      CODE     ---       #470
      010004A5H   LINE      CODE     ---       #472
      010004AAH   LINE      CODE     ---       #473
      010004ADH   LINE      CODE     ---       #474
      010004ADH   LINE      CODE     ---       #475
      010004ADH   LINE      CODE     ---       #476
      010004ADH   LINE      CODE     ---       #478
      010004ADH   LINE      CODE     ---       #480
      010004AFH   LINE      CODE     ---       #481
      ---         BLOCKEND  ---      ---       LVL=0

      010004B0H   BLOCK     CODE     ---       LVL=0
      010004B0H   BLOCK     CODE     NEAR LAB  LVL=1
      02000001H   SYMBOL    XDATA    BYTE      bitState
      ---         BLOCKEND  ---      ---       LVL=1
      010004B0H   LINE      CODE     ---       #483
      010004B0H   LINE      CODE     ---       #484
      010004B0H   LINE      CODE     ---       #488
      010004C1H   LINE      CODE     ---       #489
      010004C1H   LINE      CODE     ---       #490
      010004C1H   LINE      CODE     ---       #491
      010004C1H   LINE      CODE     ---       #492
      010004C6H   LINE      CODE     ---       #493
      010004C6H   LINE      CODE     ---       #495
      010004CBH   LINE      CODE     ---       #496
      010004CEH   LINE      CODE     ---       #497
      010004D4H   LINE      CODE     ---       #498
      010004D6H   LINE      CODE     ---       #503
      010004D6H   LINE      CODE     ---       #504
      010004D6H   LINE      CODE     ---       #505
      010004D6H   LINE      CODE     ---       #507
      010004D6H   LINE      CODE     ---       #508
      010004D6H   LINE      CODE     ---       #509
      010004DBH   LINE      CODE     ---       #510
      010004DBH   LINE      CODE     ---       #512
      010004E0H   LINE      CODE     ---       #513
      010004E3H   LINE      CODE     ---       #514
LX51 LINKER/LOCATER V4.66.30.0                                                        11/09/2016  15:43:41  PAGE 25


      010004E9H   LINE      CODE     ---       #515
      010004EBH   LINE      CODE     ---       #517
      010004EBH   LINE      CODE     ---       #518
      010004EBH   LINE      CODE     ---       #519
      010004EDH   LINE      CODE     ---       #520
      010004EDH   LINE      CODE     ---       #521
      010004EDH   LINE      CODE     ---       #522
      010004EDH   LINE      CODE     ---       #524
      010004EDH   LINE      CODE     ---       #525
      010004EDH   LINE      CODE     ---       #526
      010004F2H   LINE      CODE     ---       #527
      010004F2H   LINE      CODE     ---       #529
      010004F7H   LINE      CODE     ---       #530
      010004FAH   LINE      CODE     ---       #531
      01000500H   LINE      CODE     ---       #533
      01000502H   LINE      CODE     ---       #535
      01000502H   LINE      CODE     ---       #536
      01000502H   LINE      CODE     ---       #537
      01000504H   LINE      CODE     ---       #538
      01000504H   LINE      CODE     ---       #539
      01000504H   LINE      CODE     ---       #541
      01000504H   LINE      CODE     ---       #542
      01000504H   LINE      CODE     ---       #543
      01000504H   LINE      CODE     ---       #544
      01000509H   LINE      CODE     ---       #545
      01000509H   LINE      CODE     ---       #547
      0100050EH   LINE      CODE     ---       #548
      01000513H   LINE      CODE     ---       #549
      01000516H   LINE      CODE     ---       #550
      01000516H   LINE      CODE     ---       #552
      01000516H   LINE      CODE     ---       #553
      0100051BH   LINE      CODE     ---       #554
      0100051EH   LINE      CODE     ---       #555
      0100051EH   LINE      CODE     ---       #556
      0100051EH   LINE      CODE     ---       #557
      0100051EH   LINE      CODE     ---       #559
      0100051EH   LINE      CODE     ---       #561
      01000520H   LINE      CODE     ---       #562
      ---         BLOCKEND  ---      ---       LVL=0

      01000576H   BLOCK     CODE     ---       LVL=0
      01000576H   BLOCK     CODE     NEAR LAB  LVL=1
      02000002H   SYMBOL    XDATA    BYTE      bitState
      ---         BLOCKEND  ---      ---       LVL=1
      01000576H   LINE      CODE     ---       #565
      01000576H   LINE      CODE     ---       #566
      01000576H   LINE      CODE     ---       #569
      01000587H   LINE      CODE     ---       #570
      01000587H   LINE      CODE     ---       #571
      01000587H   LINE      CODE     ---       #572
      01000587H   LINE      CODE     ---       #574
      0100058CH   LINE      CODE     ---       #575
      0100058FH   LINE      CODE     ---       #576
      01000595H   LINE      CODE     ---       #578
      01000597H   LINE      CODE     ---       #579
      01000597H   LINE      CODE     ---       #581
      01000597H   LINE      CODE     ---       #582
      01000597H   LINE      CODE     ---       #583
      0100059CH   LINE      CODE     ---       #584
      0100059FH   LINE      CODE     ---       #585
      010005A5H   LINE      CODE     ---       #587
      010005A7H   LINE      CODE     ---       #588
LX51 LINKER/LOCATER V4.66.30.0                                                        11/09/2016  15:43:41  PAGE 26


      010005A7H   LINE      CODE     ---       #590
      010005A7H   LINE      CODE     ---       #591
      010005A7H   LINE      CODE     ---       #593
      010005ACH   LINE      CODE     ---       #594
      010005AFH   LINE      CODE     ---       #595
      010005B5H   LINE      CODE     ---       #597
      010005B7H   LINE      CODE     ---       #599
      010005B7H   LINE      CODE     ---       #600
      010005B7H   LINE      CODE     ---       #601
      010005B7H   LINE      CODE     ---       #603
      010005BCH   LINE      CODE     ---       #604
      010005BFH   LINE      CODE     ---       #605
      010005C4H   LINE      CODE     ---       #607
      010005C6H   LINE      CODE     ---       #608
      010005C6H   LINE      CODE     ---       #609
      010005C6H   LINE      CODE     ---       #610
      010005C6H   LINE      CODE     ---       #611
      010005C7H   LINE      CODE     ---       #613
      ---         BLOCKEND  ---      ---       LVL=0

      01000713H   BLOCK     CODE     ---       LVL=0
      01000713H   BLOCK     CODE     NEAR LAB  LVL=1
      00000006H   SYMBOL    DATA     INT       output
      ---         BLOCKEND  ---      ---       LVL=1
      01000713H   LINE      CODE     ---       #616
      01000713H   LINE      CODE     ---       #617
      01000713H   LINE      CODE     ---       #618
      01000717H   LINE      CODE     ---       #620
      01000729H   LINE      CODE     ---       #621
      01000738H   LINE      CODE     ---       #624
      0100073AH   LINE      CODE     ---       #625
      0100073CH   LINE      CODE     ---       #626
      0100073EH   LINE      CODE     ---       #627
      01000740H   LINE      CODE     ---       #629
      01000740H   LINE      CODE     ---       #630
      ---         BLOCKEND  ---      ---       LVL=0

      010008A0H   BLOCK     CODE     ---       LVL=0
      010008A0H   LINE      CODE     ---       #634
      010008A0H   LINE      CODE     ---       #635
      010008A0H   LINE      CODE     ---       #636
      010008A2H   LINE      CODE     ---       #637
      ---         BLOCKEND  ---      ---       LVL=0

      01000016H   BLOCK     CODE     ---       LVL=0
      01000016H   LINE      CODE     ---       #639
      01000016H   LINE      CODE     ---       #640
      01000016H   LINE      CODE     ---       #641
      01000019H   LINE      CODE     ---       #642
      ---         BLOCKEND  ---      ---       LVL=0

      0100088AH   BLOCK     CODE     ---       LVL=0
      0100088AH   LINE      CODE     ---       #644
      0100088AH   LINE      CODE     ---       #645
      0100088AH   LINE      CODE     ---       #646
      0100088DH   LINE      CODE     ---       #647
      ---         BLOCKEND  ---      ---       LVL=0

      0100080CH   BLOCK     CODE     ---       LVL=0
      ---         BLOCKEND  ---      ---       LVL=0

      01000810H   BLOCK     CODE     ---       LVL=0
LX51 LINKER/LOCATER V4.66.30.0                                                        11/09/2016  15:43:41  PAGE 27


      00000007H   SYMBOL    DATA     BYTE      reloadH
      00000005H   SYMBOL    DATA     BYTE      reloadL
      01000810H   LINE      CODE     ---       #650
      01000810H   LINE      CODE     ---       #651
      01000810H   LINE      CODE     ---       #652
      01000812H   LINE      CODE     ---       #653
      01000814H   LINE      CODE     ---       #654
      ---         BLOCKEND  ---      ---       LVL=0

      010007B7H   BLOCK     CODE     ---       LVL=0
      ---         BLOCKEND  ---      ---       LVL=0

      010007BBH   BLOCK     CODE     ---       LVL=0
      00000007H   SYMBOL    DATA     BYTE      reloadH
      00000005H   SYMBOL    DATA     BYTE      reloadL
      010007BBH   LINE      CODE     ---       #656
      010007BBH   LINE      CODE     ---       #657
      010007BBH   LINE      CODE     ---       #658
      010007BDH   LINE      CODE     ---       #659
      010007BFH   LINE      CODE     ---       #660
      010007C2H   LINE      CODE     ---       #661
      ---         BLOCKEND  ---      ---       LVL=0

      0100087EH   BLOCK     CODE     ---       LVL=0
      0100087EH   LINE      CODE     ---       #664
      0100087EH   LINE      CODE     ---       #665
      0100087EH   LINE      CODE     ---       #667
      01000881H   LINE      CODE     ---       #668
      ---         BLOCKEND  ---      ---       LVL=0

      0100088EH   BLOCK     CODE     ---       LVL=0
      0100088EH   LINE      CODE     ---       #672
      0100088EH   LINE      CODE     ---       #673
      0100088EH   LINE      CODE     ---       #675
      01000891H   LINE      CODE     ---       #676
      ---         BLOCKEND  ---      ---       LVL=0

      01000884H   BLOCK     CODE     ---       LVL=0
      01000884H   LINE      CODE     ---       #685
      01000884H   LINE      CODE     ---       #686
      01000884H   LINE      CODE     ---       #688
      01000887H   LINE      CODE     ---       #689
      01000889H   LINE      CODE     ---       #690
      01000889H   LINE      CODE     ---       #691
      ---         BLOCKEND  ---      ---       LVL=0

      0100077FH   BLOCK     CODE     ---       LVL=0
      0100077FH   LINE      CODE     ---       #693
      0100077FH   LINE      CODE     ---       #694
      0100077FH   LINE      CODE     ---       #696
      01000784H   LINE      CODE     ---       #697
      01000784H   LINE      CODE     ---       #699
      01000790H   LINE      CODE     ---       #700
      01000790H   LINE      CODE     ---       #701
      01000795H   LINE      CODE     ---       #702
      01000795H   LINE      CODE     ---       #704
      01000798H   LINE      CODE     ---       #705
      01000798H   LINE      CODE     ---       #706
      ---         BLOCKEND  ---      ---       LVL=0

      010008A3H   BLOCK     CODE     ---       LVL=0
      010008A3H   LINE      CODE     ---       #709
LX51 LINKER/LOCATER V4.66.30.0                                                        11/09/2016  15:43:41  PAGE 28


      010008A3H   LINE      CODE     ---       #710
      010008A3H   LINE      CODE     ---       #711
      010008A5H   LINE      CODE     ---       #712
      ---         BLOCKEND  ---      ---       LVL=0

      01000892H   BLOCK     CODE     ---       LVL=0
      01000892H   LINE      CODE     ---       #714
      01000892H   LINE      CODE     ---       #715
      01000892H   LINE      CODE     ---       #716
      01000895H   LINE      CODE     ---       #717
      ---         BLOCKEND  ---      ---       LVL=0

      010008A6H   BLOCK     CODE     ---       LVL=0
      010008A6H   LINE      CODE     ---       #719
      010008A6H   LINE      CODE     ---       #720
      010008A6H   LINE      CODE     ---       #721
      010008A8H   LINE      CODE     ---       #722
      ---         BLOCKEND  ---      ---       LVL=0

      01000846H   BLOCK     CODE     ---       LVL=0
      01000846H   LINE      CODE     ---       #745
      01000846H   LINE      CODE     ---       #746
      01000846H   LINE      CODE     ---       #747
      0100084DH   LINE      CODE     ---       #748
      ---         BLOCKEND  ---      ---       LVL=0

      01000815H   BLOCK     CODE     ---       LVL=0
      01000815H   LINE      CODE     ---       #750
      01000815H   LINE      CODE     ---       #751
      01000815H   LINE      CODE     ---       #752
      0100081DH   LINE      CODE     ---       #753
      ---         BLOCKEND  ---      ---       LVL=0

      010007EDH   BLOCK     CODE     ---       LVL=0
      00000007H   SYMBOL    DATA     BYTE      input
      010007EDH   LINE      CODE     ---       #755
      010007EDH   LINE      CODE     ---       #756
      010007EDH   LINE      CODE     ---       #757
      010007F4H   LINE      CODE     ---       #758
      010007F7H   LINE      CODE     ---       #759
      ---         BLOCKEND  ---      ---       LVL=0

      01000856H   BLOCK     CODE     ---       LVL=0
      01000856H   LINE      CODE     ---       #762
      01000856H   LINE      CODE     ---       #763
      01000856H   LINE      CODE     ---       #764
      01000859H   LINE      CODE     ---       #765
      0100085CH   LINE      CODE     ---       #766
      ---         BLOCKEND  ---      ---       LVL=0

      01000896H   BLOCK     CODE     ---       LVL=0
      01000896H   LINE      CODE     ---       #768
      01000896H   LINE      CODE     ---       #769
      01000896H   LINE      CODE     ---       #770
      01000899H   LINE      CODE     ---       #771
      ---         BLOCKEND  ---      ---       LVL=0

      0100085DH   BLOCK     CODE     ---       LVL=0
      0100085DH   LINE      CODE     ---       #773
      0100085DH   LINE      CODE     ---       #774
      0100085DH   LINE      CODE     ---       #775
      01000863H   LINE      CODE     ---       #776
LX51 LINKER/LOCATER V4.66.30.0                                                        11/09/2016  15:43:41  PAGE 29


      ---         BLOCKEND  ---      ---       LVL=0

      0100084EH   BLOCK     CODE     ---       LVL=0
      0100084EH   LINE      CODE     ---       #778
      0100084EH   LINE      CODE     ---       #779
      0100084EH   LINE      CODE     ---       #780
      01000853H   LINE      CODE     ---       #781
      01000855H   LINE      CODE     ---       #782
      ---         BLOCKEND  ---      ---       LVL=0

      0100001EH   BLOCK     CODE     ---       LVL=0
      00000006H   SYMBOL    DATA     INT       EntryMethod
      0000000DH   SYMBOL    DATA     BYTE      mode
      01000020H   BLOCK     CODE     NEAR LAB  LVL=1
      02000003H   SYMBOL    XDATA    BYTE      State
      0000000EH   SYMBOL    DATA     INT       Entry
      02000004H   SYMBOL    XDATA    ---       DaliData
      02000005H   SYMBOL    XDATA    BYTE      bitscounter
      00000010H   SYMBOL    DATA     INT       bitread
      ---         BLOCKEND  ---      ---       LVL=1
      0100001EH   LINE      CODE     ---       #784
      01000020H   LINE      CODE     ---       #785
      01000020H   LINE      CODE     ---       #791
      01000025H   LINE      CODE     ---       #793
      01000029H   LINE      CODE     ---       #795
      01000051H   LINE      CODE     ---       #797
      01000051H   LINE      CODE     ---       #799
      01000051H   LINE      CODE     ---       #800
      01000051H   LINE      CODE     ---       #801
      01000060H   LINE      CODE     ---       #802
      01000065H   LINE      CODE     ---       #803
      01000069H   LINE      CODE     ---       #804
      0100006DH   LINE      CODE     ---       #807
      0100006DH   LINE      CODE     ---       #809
      0100006DH   LINE      CODE     ---       #810
      0100006DH   LINE      CODE     ---       #811
      01000075H   LINE      CODE     ---       #812
      01000081H   LINE      CODE     ---       #813
      01000082H   LINE      CODE     ---       #814
      01000082H   LINE      CODE     ---       #816
      01000082H   LINE      CODE     ---       #817
      01000082H   LINE      CODE     ---       #818
      01000082H   LINE      CODE     ---       #820
      0100008AH   LINE      CODE     ---       #821
      0100008AH   LINE      CODE     ---       #822
      01000091H   LINE      CODE     ---       #824
      0100009EH   LINE      CODE     ---       #825
      0100009EH   LINE      CODE     ---       #826
      010000C9H   LINE      CODE     ---       #827
      010000C9H   LINE      CODE     ---       #828
      010000D6H   LINE      CODE     ---       #829
      010000D9H   LINE      CODE     ---       #831
      010000E8H   LINE      CODE     ---       #832
      010000EAH   LINE      CODE     ---       #834
      010000FBH   LINE      CODE     ---       #835
      010000FDH   LINE      CODE     ---       #837
      0100010FH   LINE      CODE     ---       #838
      01000111H   LINE      CODE     ---       #840
      01000121H   LINE      CODE     ---       #841
      01000123H   LINE      CODE     ---       #843
      01000134H   LINE      CODE     ---       #844
      01000136H   LINE      CODE     ---       #846
LX51 LINKER/LOCATER V4.66.30.0                                                        11/09/2016  15:43:41  PAGE 30


      01000148H   LINE      CODE     ---       #847
      0100014AH   LINE      CODE     ---       #849
      0100015DH   LINE      CODE     ---       #850
      0100015DH   LINE      CODE     ---       #851
      0100015DH   LINE      CODE     ---       #852
      0100016AH   LINE      CODE     ---       #853
      0100016AH   LINE      CODE     ---       #855
      0100016DH   LINE      CODE     ---       #856
      01000174H   LINE      CODE     ---       #857
      01000174H   LINE      CODE     ---       #858
      0100017AH   LINE      CODE     ---       #860
      01000185H   LINE      CODE     ---       #861
      01000188H   LINE      CODE     ---       #862
      01000189H   LINE      CODE     ---       #864
      01000189H   LINE      CODE     ---       #865
      01000191H   LINE      CODE     ---       #866
      01000197H   LINE      CODE     ---       #867
      0100019EH   LINE      CODE     ---       #869
      0100019EH   LINE      CODE     ---       #871
      0100019EH   LINE      CODE     ---       #873
      0100019EH   LINE      CODE     ---       #876
      0100019EH   LINE      CODE     ---       #877
      010001A6H   LINE      CODE     ---       #878
      010001ACH   LINE      CODE     ---       #880
      010001ACH   LINE      CODE     ---       #881
      010001ACH   LINE      CODE     ---       #882
      010001ADH   LINE      CODE     ---       #883
      010001ADH   LINE      CODE     ---       #884
      010001ADH   LINE      CODE     ---       #885
      010001ADH   LINE      CODE     ---       #886
      010001B5H   LINE      CODE     ---       #887
      010001BEH   LINE      CODE     ---       #889
      010001C6H   LINE      CODE     ---       #890
      010001C6H   LINE      CODE     ---       #891
      010001C6H   LINE      CODE     ---       #892
      010001C6H   LINE      CODE     ---       #893
      010001CBH   LINE      CODE     ---       #894
      010001CFH   LINE      CODE     ---       #895
      010001D2H   LINE      CODE     ---       #896
      010001D7H   LINE      CODE     ---       #897
      010001DAH   LINE      CODE     ---       #898
      010001E1H   LINE      CODE     ---       #899
      010001E5H   LINE      CODE     ---       #900
      010001E6H   LINE      CODE     ---       #901
      010001E6H   LINE      CODE     ---       #903
      010001E6H   LINE      CODE     ---       #904
      010001E6H   LINE      CODE     ---       #905
      010001EBH   LINE      CODE     ---       #906
      010001EEH   LINE      CODE     ---       #907
      010001F3H   LINE      CODE     ---       #908
      010001F6H   LINE      CODE     ---       #910
      010001FDH   LINE      CODE     ---       #911
      010001FEH   LINE      CODE     ---       #912
      010001FEH   LINE      CODE     ---       #914
      01000203H   LINE      CODE     ---       #918
      01000203H   LINE      CODE     ---       #919
      ---         BLOCKEND  ---      ---       LVL=0

      ---         MODULE    ---      ---       DALI__MAIN
      0200000AH   PUBLIC    XDATA    ---       DaliRead
      010005C8H   PUBLIC    CODE     ---       main
      000000A2H   SFRSYM    DATA     BYTE      SPI0CKR
LX51 LINKER/LOCATER V4.66.30.0                                                        11/09/2016  15:43:41  PAGE 31


      00000080H   SFRSYM    DATA     BYTE      P0
      000000C8H.6 SFRSYM    DATA     BIT       SCON1_PERR
      000000D0H.2 SFRSYM    DATA     BIT       PSW_OV
      00000090H   SFRSYM    DATA     BYTE      P1
      000000F8H.1 SFRSYM    DATA     BIT       SPI0CN0_TXNF
      00000097H   SFRSYM    DATA     BYTE      WDTCN
      000000A0H   SFRSYM    DATA     BYTE      P2
      000000B0H   SFRSYM    DATA     BYTE      P3
      000000BCH   SFRSYM    DATA     BYTE      ADC0CF
      000000C0H.7 SFRSYM    DATA     BIT       SMB0CN0_MASTER
      000000F9H   SFRSYM    DATA     WORD      PCA0
      000000E6H   SFRSYM    DATA     BYTE      EIE1
      000000C0H.1 SFRSYM    DATA     BIT       SMB0CN0_ACK
      000000B3H   SFRSYM    DATA     BYTE      USB0XCN
      000000CEH   SFRSYM    DATA     BYTE      EIE2
      00000090H.4 SFRSYM    DATA     BIT       LED1
      00000090H.5 SFRSYM    DATA     BIT       LED2
      0000008FH   SFRSYM    DATA     BYTE      PSCTL
      00000090H.6 SFRSYM    DATA     BIT       LED3
      000000E4H   SFRSYM    DATA     BYTE      IT01CF
      000000B0H.1 SFRSYM    DATA     BIT       LED4
      000000C0H.6 SFRSYM    DATA     BIT       SMB0CN0_TXMODE
      000000ADH   SFRSYM    DATA     BYTE      DERIVID
      00000080H.4 SFRSYM    DATA     BIT       LED5
      000000A7H   SFRSYM    DATA     BYTE      SFRPAGE
      000000A4H   SFRSYM    DATA     BYTE      P0MDOUT
      000000BFH   SFRSYM    DATA     BYTE      USB0CDSTA
      000000A5H   SFRSYM    DATA     BYTE      P1MDOUT
      000000E8H.5 SFRSYM    DATA     BIT       ADC0CN0_ADINT
      000000CBH   SFRSYM    DATA     BYTE      TMR2RLH
      000000A6H   SFRSYM    DATA     BYTE      P2MDOUT
      000000A8H   SFRSYM    DATA     BYTE      IE
      00000093H   SFRSYM    DATA     BYTE      TMR3RLH
      0000009CH   SFRSYM    DATA     BYTE      P3MDOUT
      000000A3H   SFRSYM    DATA     BYTE      TMR4RLH
      000000F3H   SFRSYM    DATA     BYTE      EIP1
      000000F4H   SFRSYM    DATA     BYTE      EIP2
      00000098H.2 SFRSYM    DATA     BIT       SCON0_RB8
      000000CAH   SFRSYM    DATA     BYTE      TMR2RLL
      000000FCH   SFRSYM    DATA     BYTE      PCA0CPH0
      00000080H.7 SFRSYM    DATA     BIT       DALI_IN
      00000092H   SFRSYM    DATA     BYTE      TMR3RLL
      000000EAH   SFRSYM    DATA     BYTE      PCA0CPH1
      00000098H.3 SFRSYM    DATA     BIT       SCON0_TB8
      000000F0H   SFRSYM    DATA     BIT       B_B0
      00000082H   SFRSYM    DATA     WORD      DP
      000000A2H   SFRSYM    DATA     BYTE      TMR4RLL
      000000ECH   SFRSYM    DATA     BYTE      PCA0CPH2
      000000F0H.1 SFRSYM    DATA     BIT       B_B1
      000000C3H   SFRSYM    DATA     WORD      ADC0GT
      000000BDH   SFRSYM    DATA     BYTE      I2C0SLAD
      000000D8H.3 SFRSYM    DATA     BIT       UART1FCN1_RFRQ
      000000F0H.2 SFRSYM    DATA     BIT       B_B2
      000000CFH   SFRSYM    DATA     BYTE      SFRPGCN
      000000FBH   SFRSYM    DATA     BYTE      PCA0CPL0
      000000F0H.3 SFRSYM    DATA     BIT       B_B3
      000000D9H   SFRSYM    DATA     BYTE      PCA0MD
      000000DAH   SFRSYM    DATA     BYTE      PCA0CPM0
      000000E9H   SFRSYM    DATA     BYTE      PCA0CPL1
      000000D8H.7 SFRSYM    DATA     BIT       UART1FCN1_TFRQ
      000000F0H.4 SFRSYM    DATA     BIT       B_B4
      000000DBH   SFRSYM    DATA     BYTE      PCA0CPM1
LX51 LINKER/LOCATER V4.66.30.0                                                        11/09/2016  15:43:41  PAGE 32


      000000EBH   SFRSYM    DATA     BYTE      PCA0CPL2
      000000F0H.5 SFRSYM    DATA     BIT       B_B5
      000000DCH   SFRSYM    DATA     BYTE      PCA0CPM2
      000000B8H   SFRSYM    DATA     BYTE      IP
      000000B9H   SFRSYM    DATA     BYTE      ADC0TK
      000000F0H.6 SFRSYM    DATA     BIT       B_B6
      000000C5H   SFRSYM    DATA     WORD      ADC0LT
      000000D8H.6 SFRSYM    DATA     BIT       UART1FCN1_TXNF
      00000098H.5 SFRSYM    DATA     BIT       SCON0_MCE
      000000F0H.7 SFRSYM    DATA     BIT       B_B7
      000000C3H   SFRSYM    DATA     BYTE      SMB0FCN0
      000000E1H   SFRSYM    DATA     BYTE      XBR0
      000000C4H   SFRSYM    DATA     BYTE      SMB0FCN1
      000000C1H   SFRSYM    DATA     BYTE      SMB0CF
      000000E2H   SFRSYM    DATA     BYTE      XBR1
      000000C1H   SFRSYM    DATA     BYTE      PFE0CN
      000000E7H   SFRSYM    DATA     BYTE      EMI0CN
      000000C0H.5 SFRSYM    DATA     BIT       SMB0CN0_STA
      000000E3H   SFRSYM    DATA     BYTE      XBR2
      000000BBH   SFRSYM    DATA     BYTE      ADC0MX
      000000E0H   SFRSYM    DATA     BIT       ACC_ACC0
      000000D1H   SFRSYM    DATA     BYTE      REF0CN
      0000008EH   SFRSYM    DATA     BYTE      CKCON0
      000000E0H.1 SFRSYM    DATA     BIT       ACC_ACC1
      000000C9H   SFRSYM    DATA     BYTE      REG0CN
      000000DDH   SFRSYM    DATA     BYTE      CRC0IN
      000000A6H   SFRSYM    DATA     BYTE      CKCON1
      000000C8H.2 SFRSYM    DATA     BIT       TMR2CN0_TR2
      000000E0H.2 SFRSYM    DATA     BIT       ACC_ACC2
      000000C6H   SFRSYM    DATA     BYTE      REG1CN
      000000E0H.3 SFRSYM    DATA     BIT       ACC_ACC3
      00000081H   SFRSYM    DATA     BYTE      SP
      0000009DH   SFRSYM    DATA     BYTE      CMP0MD
      000000E0H.4 SFRSYM    DATA     BIT       ACC_ACC4
      000000B1H   SFRSYM    DATA     BYTE      LFO0CN
      000000ABH   SFRSYM    DATA     BYTE      CMP1MD
      000000D8H   SFRSYM    DATA     BIT       PCA0CN0_CCF0
      000000E0H.5 SFRSYM    DATA     BIT       ACC_ACC5
      000000B5H   SFRSYM    DATA     BYTE      USB0CF
      00000098H.2 SFRSYM    DATA     BIT       TMR4CN0_TR4
      000000D8H.1 SFRSYM    DATA     BIT       PCA0CN0_CCF1
      000000E0H.6 SFRSYM    DATA     BIT       ACC_ACC6
      000000CCH   SFRSYM    DATA     WORD      TMR2
      0000009AH   SFRSYM    DATA     BYTE      SPI0FCN0
      000000D8H.2 SFRSYM    DATA     BIT       PCA0CN0_CCF2
      000000E0H.7 SFRSYM    DATA     BIT       ACC_ACC7
      00000094H   SFRSYM    DATA     WORD      TMR3
      0000009BH   SFRSYM    DATA     BYTE      SPI0FCN1
      000000A4H   SFRSYM    DATA     WORD      TMR4
      00000094H   SFRSYM    DATA     BYTE      SBCON1
      000000C0H.3 SFRSYM    DATA     BIT       SMB0CN0_ACKRQ
      000000FFH   SFRSYM    DATA     BYTE      VDM0CN
      000000F1H   SFRSYM    DATA     BYTE      P0MDIN
      00000098H.4 SFRSYM    DATA     BIT       SCON0_REN
      000000ACH   SFRSYM    DATA     BYTE      SMB0TC
      000000F2H   SFRSYM    DATA     BYTE      P1MDIN
      000000C8H.4 SFRSYM    DATA     BIT       SCON1_REN
      000000F3H   SFRSYM    DATA     BYTE      P2MDIN
      000000C0H.4 SFRSYM    DATA     BIT       SMB0CN0_STO
      000000B6H   SFRSYM    DATA     BYTE      USB0CDCF
      000000F4H   SFRSYM    DATA     BYTE      P3MDIN
      000000B9H   SFRSYM    DATA     BYTE      I2C0STAT
LX51 LINKER/LOCATER V4.66.30.0                                                        11/09/2016  15:43:41  PAGE 33


      000000BBH   SFRSYM    DATA     BYTE      I2C0DOUT
      00000096H   SFRSYM    DATA     BYTE      SBRLH1
      000000FEH   SFRSYM    DATA     BYTE      P0MASK
      000000D8H.5 SFRSYM    DATA     BIT       UART1FCN1_TXHOLD
      000000EEH   SFRSYM    DATA     BYTE      P1MASK
      000000FCH   SFRSYM    DATA     BYTE      P2MASK
      000000D0H.3 SFRSYM    DATA     BIT       PSW_RS0
      000000D8H.7 SFRSYM    DATA     BIT       PCA0CN0_CF
      0000009EH   SFRSYM    DATA     BYTE      PCA0CENT
      000000BAH   SFRSYM    DATA     BYTE      I2C0CN0
      000000D2H   SFRSYM    DATA     BYTE      CRC0ST
      000000F8H.4 SFRSYM    DATA     BIT       SPI0CN0_RXOVRN
      000000D0H.4 SFRSYM    DATA     BIT       PSW_RS1
      00000095H   SFRSYM    DATA     BYTE      SBRLL1
      000000C8H.2 SFRSYM    DATA     BIT       SCON1_RBX
      000000C8H   SFRSYM    DATA     BIT       TMR2CN0_T2XCLK0
      000000C8H.1 SFRSYM    DATA     BIT       TMR2CN0_T2XCLK1
      000000C8H.3 SFRSYM    DATA     BIT       SCON1_TBX
      000000E8H.7 SFRSYM    DATA     BIT       ADC0CN0_ADEN
      000000BEH   SFRSYM    DATA     BYTE      USB0CDCN
      00000089H   SFRSYM    DATA     BYTE      TMOD
      00000088H   SFRSYM    DATA     BYTE      TCON
      000000CFH   SFRSYM    DATA     BYTE      CRC0FLIP
      000000D0H   SFRSYM    DATA     BIT       PSW_PARITY
      000000A8H.4 SFRSYM    DATA     BIT       IE_ES0
      0000009FH   SFRSYM    DATA     BYTE      CMP0MX
      00000098H   SFRSYM    DATA     BIT       TMR4CN0_T4XCLK0
      000000A8H.1 SFRSYM    DATA     BIT       IE_ET0
      000000AAH   SFRSYM    DATA     BYTE      CMP1MX
      00000098H.1 SFRSYM    DATA     BIT       TMR4CN0_T4XCLK1
      000000A8H.3 SFRSYM    DATA     BIT       IE_ET1
      000000D4H   SFRSYM    DATA     BYTE      P0SKIP
      000000D8H   SFRSYM    DATA     BIT       UART1FCN1_RIE
      000000A8H.5 SFRSYM    DATA     BIT       IE_ET2
      000000D5H   SFRSYM    DATA     BYTE      P1SKIP
      000000CCH   SFRSYM    DATA     BYTE      P2SKIP
      000000E8H   SFRSYM    DATA     BYTE      ADC0CN0
      000000D8H.4 SFRSYM    DATA     BIT       UART1FCN1_TIE
      000000A8H   SFRSYM    DATA     BIT       IE_EX0
      000000B2H   SFRSYM    DATA     BYTE      ADC0CN1
      000000D8H.6 SFRSYM    DATA     BIT       PCA0CN0_CR
      000000A8H.2 SFRSYM    DATA     BIT       IE_EX1
      000000C8H.7 SFRSYM    DATA     BIT       SCON1_OVR
      00000098H.7 SFRSYM    DATA     BIT       SCON0_SMODE
      000000B5H   SFRSYM    DATA     BYTE      DEVICEID
      000000A9H   SFRSYM    DATA     BYTE      CLKSEL
      000000F8H   SFRSYM    DATA     BIT       SPI0CN0_SPIEN
      000000F0H   SFRSYM    DATA     BYTE      B
      000000BEH   SFRSYM    DATA     BYTE      ADC0H
      000000E8H.6 SFRSYM    DATA     BIT       ADC0CN0_ADBMEN
      000000CAH   SFRSYM    DATA     WORD      TMR2RL
      000000BDH   SFRSYM    DATA     BYTE      ADC0L
      00000092H   SFRSYM    DATA     WORD      TMR3RL
      000000A2H   SFRSYM    DATA     WORD      TMR4RL
      000000D8H   SFRSYM    DATA     BYTE      PCA0CN0
      000000E0H   SFRSYM    DATA     BYTE      ACC
      000000FBH   SFRSYM    DATA     WORD      PCA0CP0
      000000E9H   SFRSYM    DATA     WORD      PCA0CP1
      000000EBH   SFRSYM    DATA     WORD      PCA0CP2
      000000BCH   SFRSYM    DATA     BYTE      I2C0DIN
      000000CEH   SFRSYM    DATA     BYTE      CRC0CN0
      0000008CH   SFRSYM    DATA     BYTE      TH0
LX51 LINKER/LOCATER V4.66.30.0                                                        11/09/2016  15:43:41  PAGE 34


      00000086H   SFRSYM    DATA     BYTE      CRC0CN1
      00000080H.2 SFRSYM    DATA     BIT       PB0_SW
      000000B8H.4 SFRSYM    DATA     BIT       IP_PS0
      000000FAH   SFRSYM    DATA     BYTE      UART1FCT
      0000008DH   SFRSYM    DATA     BYTE      TH1
      000000FAH   SFRSYM    DATA     BYTE      PCA0H
      000000F5H   SFRSYM    DATA     BYTE      I2C0FCT
      000000B8H.1 SFRSYM    DATA     BIT       IP_PT0
      000000B8H.3 SFRSYM    DATA     BIT       IP_PT1
      000000C0H.2 SFRSYM    DATA     BIT       SMB0CN0_ARBLOST
      000000B8H.5 SFRSYM    DATA     BIT       IP_PT2
      0000008AH   SFRSYM    DATA     BYTE      TL0
      000000D0H.5 SFRSYM    DATA     BIT       PSW_F0
      000000A8H.6 SFRSYM    DATA     BIT       IE_ESPI0
      0000008BH   SFRSYM    DATA     BYTE      TL1
      000000F9H   SFRSYM    DATA     BYTE      PCA0L
      000000C0H   SFRSYM    DATA     BIT       SMB0CN0_SI
      000000D0H.1 SFRSYM    DATA     BIT       PSW_F1
      00000080H   SFRSYM    DATA     BIT       P0_B0
      000000B8H   SFRSYM    DATA     BIT       IP_PX0
      00000090H   SFRSYM    DATA     BIT       P1_B0
      00000080H.1 SFRSYM    DATA     BIT       P0_B1
      000000B8H.2 SFRSYM    DATA     BIT       IP_PX1
      0000009EH   SFRSYM    DATA     BYTE      UART1LIN
      0000009BH   SFRSYM    DATA     BYTE      CMP0CN0
      00000088H.1 SFRSYM    DATA     BIT       TCON_IE0
      000000A0H   SFRSYM    DATA     BIT       P2_B0
      00000090H.1 SFRSYM    DATA     BIT       P1_B1
      00000080H.2 SFRSYM    DATA     BIT       P0_B2
      000000BFH   SFRSYM    DATA     BYTE      CMP1CN0
      00000099H   SFRSYM    DATA     BYTE      CMP0CN1
      00000088H.3 SFRSYM    DATA     BIT       TCON_IE1
      000000B0H   SFRSYM    DATA     BIT       P3_B0
      000000A0H.1 SFRSYM    DATA     BIT       P2_B1
      00000090H.2 SFRSYM    DATA     BIT       P1_B2
      00000080H.3 SFRSYM    DATA     BIT       P0_B3
      000000C0H   SFRSYM    DATA     BYTE      SMB0CN0
      000000ACH   SFRSYM    DATA     BYTE      CMP1CN1
      000000B0H.1 SFRSYM    DATA     BIT       P3_B1
      000000A0H.2 SFRSYM    DATA     BIT       P2_B2
      00000090H.3 SFRSYM    DATA     BIT       P1_B3
      00000080H.4 SFRSYM    DATA     BIT       P0_B4
      000000A0H.3 SFRSYM    DATA     BIT       P2_B3
      00000090H.4 SFRSYM    DATA     BIT       P1_B4
      00000080H.5 SFRSYM    DATA     BIT       P0_B5
      000000D8H.1 SFRSYM    DATA     BIT       UART1FCN1_RXTO0
      00000090H.5 SFRSYM    DATA     BIT       P1_B5
      00000080H.6 SFRSYM    DATA     BIT       P0_B6
      000000F5H   SFRSYM    DATA     BYTE      EIP1H
      000000D8H.2 SFRSYM    DATA     BIT       UART1FCN1_RXTO1
      00000090H.6 SFRSYM    DATA     BIT       P1_B6
      00000080H.7 SFRSYM    DATA     BIT       P0_B7
      000000C5H   SFRSYM    DATA     BYTE      SMB0RXLN
      000000F6H   SFRSYM    DATA     BYTE      EIP2H
      00000090H.7 SFRSYM    DATA     BIT       P1_B7
      00000083H   SFRSYM    DATA     BYTE      DPH
      000000C4H   SFRSYM    DATA     BYTE      ADC0GTH
      000000C8H.7 SFRSYM    DATA     BIT       TMR2CN0_TF2H
      000000C8H.3 SFRSYM    DATA     BIT       TMR2CN0_T2SPLIT
      000000D0H.6 SFRSYM    DATA     BIT       PSW_AC
      000000F8H   SFRSYM    DATA     BYTE      SPI0CN0
      000000C7H   SFRSYM    DATA     BYTE      HFO0CAL
LX51 LINKER/LOCATER V4.66.30.0                                                        11/09/2016  15:43:41  PAGE 35


      00000088H.5 SFRSYM    DATA     BIT       TCON_TF0
      00000098H   SFRSYM    DATA     BIT       SCON0_RI
      000000D6H   SFRSYM    DATA     BYTE      HFO1CAL
      00000082H   SFRSYM    DATA     BYTE      DPL
      00000088H.7 SFRSYM    DATA     BIT       TCON_TF1
      000000C8H   SFRSYM    DATA     BIT       SCON1_RI
      00000099H   SFRSYM    DATA     BYTE      SBUF0
      00000087H   SFRSYM    DATA     BYTE      PCON0
      000000F2H   SFRSYM    DATA     BYTE      IPH
      000000C3H   SFRSYM    DATA     BYTE      ADC0GTL
      00000098H.7 SFRSYM    DATA     BIT       TMR4CN0_TF4H
      00000098H.3 SFRSYM    DATA     BIT       TMR4CN0_T4SPLIT
      000000C8H.6 SFRSYM    DATA     BIT       TMR2CN0_TF2L
      00000098H.1 SFRSYM    DATA     BIT       SCON0_TI
      000000E8H   SFRSYM    DATA     BIT       ADC0CN0_ADCM0
      00000092H   SFRSYM    DATA     BYTE      SBUF1
      0000009AH   SFRSYM    DATA     BYTE      PCON1
      000000C6H   SFRSYM    DATA     BYTE      ADC0LTH
      00000088H   SFRSYM    DATA     BIT       TCON_IT0
      000000C8H.1 SFRSYM    DATA     BIT       SCON1_TI
      000000E8H.1 SFRSYM    DATA     BIT       ADC0CN0_ADCM1
      000000EFH   SFRSYM    DATA     BYTE      RSTSRC
      000000FDH   SFRSYM    DATA     BYTE      P0MAT
      000000DEH   SFRSYM    DATA     BYTE      CRC0DAT
      00000088H.2 SFRSYM    DATA     BIT       TCON_IT1
      000000E8H.2 SFRSYM    DATA     BIT       ADC0CN0_ADCM2
      000000D7H   SFRSYM    DATA     BYTE      SFRSTACK
      00000098H   SFRSYM    DATA     BYTE      SCON0
      000000F6H   SFRSYM    DATA     BYTE      PRTDRV
      000000EDH   SFRSYM    DATA     BYTE      P1MAT
      000000E8H.3 SFRSYM    DATA     BIT       ADC0CN0_ADWINT
      00000095H   SFRSYM    DATA     WORD      SBRL1
      000000B2H   SFRSYM    DATA     BYTE      USB0AEC
      00000093H   SFRSYM    DATA     BYTE      SMOD1
      000000C8H   SFRSYM    DATA     BYTE      SCON1
      000000FBH   SFRSYM    DATA     BYTE      P2MAT
      00000098H.6 SFRSYM    DATA     BIT       TMR4CN0_TF4L
      000000E8H.4 SFRSYM    DATA     BIT       ADC0CN0_ADBUSY
      000000D6H   SFRSYM    DATA     BYTE      SMB0ADM
      000000C5H   SFRSYM    DATA     BYTE      ADC0LTL
      000000F8H.5 SFRSYM    DATA     BIT       SPI0CN0_MODF
      000000B8H.6 SFRSYM    DATA     BIT       IP_PSPI0
      0000009CH   SFRSYM    DATA     BYTE      PCA0CLR
      000000C8H   SFRSYM    DATA     BYTE      TMR2CN0
      00000091H   SFRSYM    DATA     BYTE      TMR3CN0
      000000FDH   SFRSYM    DATA     BYTE      TMR2CN1
      00000098H   SFRSYM    DATA     BYTE      TMR4CN0
      000000FEH   SFRSYM    DATA     BYTE      TMR3CN1
      000000FFH   SFRSYM    DATA     BYTE      TMR4CN1
      000000D7H   SFRSYM    DATA     BYTE      SMB0ADR
      00000088H.4 SFRSYM    DATA     BIT       TCON_TR0
      000000C8H.4 SFRSYM    DATA     BIT       TMR2CN0_TF2CEN
      00000088H.6 SFRSYM    DATA     BIT       TCON_TR1
      000000C2H   SFRSYM    DATA     BYTE      SMB0DAT
      000000CDH   SFRSYM    DATA     BYTE      TMR2H
      000000A1H   SFRSYM    DATA     BYTE      SPI0CFG
      00000095H   SFRSYM    DATA     BYTE      TMR3H
      000000EFH   SFRSYM    DATA     BYTE      HFOCN
      000000D3H   SFRSYM    DATA     BYTE      CRC0CNT
      000000A5H   SFRSYM    DATA     BYTE      TMR4H
      00000098H.4 SFRSYM    DATA     BIT       TMR4CN0_TF4CEN
      000000EFH   SFRSYM    DATA     BYTE      SMB0FCT
LX51 LINKER/LOCATER V4.66.30.0                                                        11/09/2016  15:43:41  PAGE 36


      00000096H   SFRSYM    DATA     BYTE      PCA0POL
      000000CCH   SFRSYM    DATA     BYTE      TMR2L
      000000F8H.7 SFRSYM    DATA     BIT       SPI0CN0_SPIF
      000000AEH   SFRSYM    DATA     BYTE      USB0ADR
      00000094H   SFRSYM    DATA     BYTE      TMR3L
      000000DFH   SFRSYM    DATA     BYTE      ADC0PWR
      00000080H   SFRSYM    DATA     BIT       DALI_OUT
      000000A0H.3 SFRSYM    DATA     BIT       EFM_DISP_ENABLE
      000000A8H.7 SFRSYM    DATA     BIT       IE_EA
      000000A4H   SFRSYM    DATA     BYTE      TMR4L
      000000AFH   SFRSYM    DATA     BYTE      USB0DAT
      000000C8H.5 SFRSYM    DATA     BIT       TMR2CN0_TF2LEN
      000000F8H.6 SFRSYM    DATA     BIT       SPI0CN0_WCOL
      000000F8H.2 SFRSYM    DATA     BIT       SPI0CN0_NSSMD0
      000000D0H.7 SFRSYM    DATA     BIT       PSW_CY
      0000009DH   SFRSYM    DATA     BYTE      UART1FCN0
      000000A3H   SFRSYM    DATA     BYTE      SPI0DAT
      000000ADH   SFRSYM    DATA     BYTE      I2C0FCN0
      000000F8H.3 SFRSYM    DATA     BIT       SPI0CN0_NSSMD1
      000000BDH   SFRSYM    DATA     WORD      ADC0
      000000D8H   SFRSYM    DATA     BYTE      UART1FCN1
      000000ABH   SFRSYM    DATA     BYTE      I2C0FCN1
      00000098H.5 SFRSYM    DATA     BIT       TMR4CN0_TF4LEN
      000000D0H   SFRSYM    DATA     BYTE      PSW
      000000F7H   SFRSYM    DATA     BYTE      PCA0PWM
      000000F7H   SFRSYM    DATA     BYTE      SPI0FCT
      000000B6H   SFRSYM    DATA     BYTE      REVID
      000000B7H   SFRSYM    DATA     BYTE      FLKEY
      000000B3H   SFRSYM    DATA     BYTE      ADC0AC

      010005C8H   BLOCK     CODE     ---       LVL=0
      010005C8H   BLOCK     CODE     NEAR LAB  LVL=1
      00000012H   SYMBOL    DATA     BYTE      test
      00000006H   SYMBOL    DATA     WORD      fcounter
      ---         BLOCKEND  ---      ---       LVL=1
      010005C8H   LINE      CODE     ---       #17
      010005C8H   LINE      CODE     ---       #18
      010005C8H   LINE      CODE     ---       #19
      010005CBH   LINE      CODE     ---       #22
      010005CEH   LINE      CODE     ---       #24
      010005D0H   LINE      CODE     ---       #27
      010005D3H   LINE      CODE     ---       #28
      010005D5H   LINE      CODE     ---       #30
      010005D8H   LINE      CODE     ---       #31
      010005DBH   LINE      CODE     ---       #33
      010005DBH   LINE      CODE     ---       #38
      010005DEH   LINE      CODE     ---       #40
      010005E5H   LINE      CODE     ---       #41
      010005F3H   LINE      CODE     ---       #42
      010005F3H   LINE      CODE     ---       #44
      010005F8H   LINE      CODE     ---       #45
      010005F8H   LINE      CODE     ---       #47
      010005FBH   LINE      CODE     ---       #48
      0100060BH   LINE      CODE     ---       #49
      0100060CH   LINE      CODE     ---       #51
      0100060CH   LINE      CODE     ---       #65
      ---         BLOCKEND  ---      ---       LVL=0

      ---         MODULE    ---      ---       INITDEVICE
      010007E0H   PUBLIC    CODE     ---       INTERRUPT_0_enter_DefaultMode_from_RESET
      01000802H   PUBLIC    CODE     ---       TIMER_SETUP_0_enter_DefaultMode_from_RESET
      010007C5H   PUBLIC    CODE     ---       TIMER01_0_enter_DefaultMode_from_RESET
LX51 LINKER/LOCATER V4.66.30.0                                                        11/09/2016  15:43:41  PAGE 37


      0100086BH   PUBLIC    CODE     ---       PBCFG_0_enter_DefaultMode_from_RESET
      010007D3H   PUBLIC    CODE     ---       PORTS_2_enter_DefaultMode_from_RESET
      01000864H   PUBLIC    CODE     ---       WDT_0_enter_DefaultMode_from_RESET
      01000763H   PUBLIC    CODE     ---       enter_DefaultMode_from_RESET
      000000A2H   SFRSYM    DATA     BYTE      SPI0CKR
      00000080H   SFRSYM    DATA     BYTE      P0
      000000C8H.6 SFRSYM    DATA     BIT       SCON1_PERR
      000000D0H.2 SFRSYM    DATA     BIT       PSW_OV
      00000090H   SFRSYM    DATA     BYTE      P1
      000000F8H.1 SFRSYM    DATA     BIT       SPI0CN0_TXNF
      00000097H   SFRSYM    DATA     BYTE      WDTCN
      000000A0H   SFRSYM    DATA     BYTE      P2
      000000B0H   SFRSYM    DATA     BYTE      P3
      000000BCH   SFRSYM    DATA     BYTE      ADC0CF
      000000C0H.7 SFRSYM    DATA     BIT       SMB0CN0_MASTER
      000000F9H   SFRSYM    DATA     WORD      PCA0
      000000E6H   SFRSYM    DATA     BYTE      EIE1
      000000C0H.1 SFRSYM    DATA     BIT       SMB0CN0_ACK
      000000B3H   SFRSYM    DATA     BYTE      USB0XCN
      000000CEH   SFRSYM    DATA     BYTE      EIE2
      00000090H.4 SFRSYM    DATA     BIT       LED1
      00000090H.5 SFRSYM    DATA     BIT       LED2
      0000008FH   SFRSYM    DATA     BYTE      PSCTL
      00000090H.6 SFRSYM    DATA     BIT       LED3
      000000E4H   SFRSYM    DATA     BYTE      IT01CF
      000000B0H.1 SFRSYM    DATA     BIT       LED4
      000000C0H.6 SFRSYM    DATA     BIT       SMB0CN0_TXMODE
      000000ADH   SFRSYM    DATA     BYTE      DERIVID
      00000080H.4 SFRSYM    DATA     BIT       LED5
      000000A7H   SFRSYM    DATA     BYTE      SFRPAGE
      000000A4H   SFRSYM    DATA     BYTE      P0MDOUT
      000000BFH   SFRSYM    DATA     BYTE      USB0CDSTA
      000000A5H   SFRSYM    DATA     BYTE      P1MDOUT
      000000E8H.5 SFRSYM    DATA     BIT       ADC0CN0_ADINT
      000000CBH   SFRSYM    DATA     BYTE      TMR2RLH
      000000A6H   SFRSYM    DATA     BYTE      P2MDOUT
      000000A8H   SFRSYM    DATA     BYTE      IE
      00000093H   SFRSYM    DATA     BYTE      TMR3RLH
      0000009CH   SFRSYM    DATA     BYTE      P3MDOUT
      000000A3H   SFRSYM    DATA     BYTE      TMR4RLH
      000000F3H   SFRSYM    DATA     BYTE      EIP1
      000000F4H   SFRSYM    DATA     BYTE      EIP2
      00000098H.2 SFRSYM    DATA     BIT       SCON0_RB8
      000000CAH   SFRSYM    DATA     BYTE      TMR2RLL
      000000FCH   SFRSYM    DATA     BYTE      PCA0CPH0
      00000080H.7 SFRSYM    DATA     BIT       DALI_IN
      00000092H   SFRSYM    DATA     BYTE      TMR3RLL
      000000EAH   SFRSYM    DATA     BYTE      PCA0CPH1
      00000098H.3 SFRSYM    DATA     BIT       SCON0_TB8
      000000F0H   SFRSYM    DATA     BIT       B_B0
      00000082H   SFRSYM    DATA     WORD      DP
      000000A2H   SFRSYM    DATA     BYTE      TMR4RLL
      000000ECH   SFRSYM    DATA     BYTE      PCA0CPH2
      000000F0H.1 SFRSYM    DATA     BIT       B_B1
      000000C3H   SFRSYM    DATA     WORD      ADC0GT
      000000BDH   SFRSYM    DATA     BYTE      I2C0SLAD
      000000D8H.3 SFRSYM    DATA     BIT       UART1FCN1_RFRQ
      000000F0H.2 SFRSYM    DATA     BIT       B_B2
      000000CFH   SFRSYM    DATA     BYTE      SFRPGCN
      000000FBH   SFRSYM    DATA     BYTE      PCA0CPL0
      000000F0H.3 SFRSYM    DATA     BIT       B_B3
      000000D9H   SFRSYM    DATA     BYTE      PCA0MD
LX51 LINKER/LOCATER V4.66.30.0                                                        11/09/2016  15:43:41  PAGE 38


      000000DAH   SFRSYM    DATA     BYTE      PCA0CPM0
      000000E9H   SFRSYM    DATA     BYTE      PCA0CPL1
      000000D8H.7 SFRSYM    DATA     BIT       UART1FCN1_TFRQ
      000000F0H.4 SFRSYM    DATA     BIT       B_B4
      000000DBH   SFRSYM    DATA     BYTE      PCA0CPM1
      000000EBH   SFRSYM    DATA     BYTE      PCA0CPL2
      000000F0H.5 SFRSYM    DATA     BIT       B_B5
      000000DCH   SFRSYM    DATA     BYTE      PCA0CPM2
      000000B8H   SFRSYM    DATA     BYTE      IP
      000000B9H   SFRSYM    DATA     BYTE      ADC0TK
      000000F0H.6 SFRSYM    DATA     BIT       B_B6
      000000C5H   SFRSYM    DATA     WORD      ADC0LT
      000000D8H.6 SFRSYM    DATA     BIT       UART1FCN1_TXNF
      00000098H.5 SFRSYM    DATA     BIT       SCON0_MCE
      000000F0H.7 SFRSYM    DATA     BIT       B_B7
      000000C3H   SFRSYM    DATA     BYTE      SMB0FCN0
      000000E1H   SFRSYM    DATA     BYTE      XBR0
      000000C4H   SFRSYM    DATA     BYTE      SMB0FCN1
      000000C1H   SFRSYM    DATA     BYTE      SMB0CF
      000000E2H   SFRSYM    DATA     BYTE      XBR1
      000000C1H   SFRSYM    DATA     BYTE      PFE0CN
      000000E7H   SFRSYM    DATA     BYTE      EMI0CN
      000000C0H.5 SFRSYM    DATA     BIT       SMB0CN0_STA
      000000E3H   SFRSYM    DATA     BYTE      XBR2
      000000BBH   SFRSYM    DATA     BYTE      ADC0MX
      000000E0H   SFRSYM    DATA     BIT       ACC_ACC0
      000000D1H   SFRSYM    DATA     BYTE      REF0CN
      0000008EH   SFRSYM    DATA     BYTE      CKCON0
      000000E0H.1 SFRSYM    DATA     BIT       ACC_ACC1
      000000C9H   SFRSYM    DATA     BYTE      REG0CN
      000000DDH   SFRSYM    DATA     BYTE      CRC0IN
      000000A6H   SFRSYM    DATA     BYTE      CKCON1
      000000C8H.2 SFRSYM    DATA     BIT       TMR2CN0_TR2
      000000E0H.2 SFRSYM    DATA     BIT       ACC_ACC2
      000000C6H   SFRSYM    DATA     BYTE      REG1CN
      000000E0H.3 SFRSYM    DATA     BIT       ACC_ACC3
      00000081H   SFRSYM    DATA     BYTE      SP
      0000009DH   SFRSYM    DATA     BYTE      CMP0MD
      000000E0H.4 SFRSYM    DATA     BIT       ACC_ACC4
      000000B1H   SFRSYM    DATA     BYTE      LFO0CN
      000000ABH   SFRSYM    DATA     BYTE      CMP1MD
      000000D8H   SFRSYM    DATA     BIT       PCA0CN0_CCF0
      000000E0H.5 SFRSYM    DATA     BIT       ACC_ACC5
      000000B5H   SFRSYM    DATA     BYTE      USB0CF
      00000098H.2 SFRSYM    DATA     BIT       TMR4CN0_TR4
      000000D8H.1 SFRSYM    DATA     BIT       PCA0CN0_CCF1
      000000E0H.6 SFRSYM    DATA     BIT       ACC_ACC6
      000000CCH   SFRSYM    DATA     WORD      TMR2
      0000009AH   SFRSYM    DATA     BYTE      SPI0FCN0
      000000D8H.2 SFRSYM    DATA     BIT       PCA0CN0_CCF2
      000000E0H.7 SFRSYM    DATA     BIT       ACC_ACC7
      00000094H   SFRSYM    DATA     WORD      TMR3
      0000009BH   SFRSYM    DATA     BYTE      SPI0FCN1
      000000A4H   SFRSYM    DATA     WORD      TMR4
      00000094H   SFRSYM    DATA     BYTE      SBCON1
      000000C0H.3 SFRSYM    DATA     BIT       SMB0CN0_ACKRQ
      000000FFH   SFRSYM    DATA     BYTE      VDM0CN
      000000F1H   SFRSYM    DATA     BYTE      P0MDIN
      00000098H.4 SFRSYM    DATA     BIT       SCON0_REN
      000000ACH   SFRSYM    DATA     BYTE      SMB0TC
      000000F2H   SFRSYM    DATA     BYTE      P1MDIN
      000000C8H.4 SFRSYM    DATA     BIT       SCON1_REN
LX51 LINKER/LOCATER V4.66.30.0                                                        11/09/2016  15:43:41  PAGE 39


      000000F3H   SFRSYM    DATA     BYTE      P2MDIN
      000000C0H.4 SFRSYM    DATA     BIT       SMB0CN0_STO
      000000B6H   SFRSYM    DATA     BYTE      USB0CDCF
      000000F4H   SFRSYM    DATA     BYTE      P3MDIN
      000000B9H   SFRSYM    DATA     BYTE      I2C0STAT
      000000BBH   SFRSYM    DATA     BYTE      I2C0DOUT
      00000096H   SFRSYM    DATA     BYTE      SBRLH1
      000000FEH   SFRSYM    DATA     BYTE      P0MASK
      000000D8H.5 SFRSYM    DATA     BIT       UART1FCN1_TXHOLD
      000000EEH   SFRSYM    DATA     BYTE      P1MASK
      000000FCH   SFRSYM    DATA     BYTE      P2MASK
      000000D0H.3 SFRSYM    DATA     BIT       PSW_RS0
      000000D8H.7 SFRSYM    DATA     BIT       PCA0CN0_CF
      0000009EH   SFRSYM    DATA     BYTE      PCA0CENT
      000000BAH   SFRSYM    DATA     BYTE      I2C0CN0
      000000D2H   SFRSYM    DATA     BYTE      CRC0ST
      000000F8H.4 SFRSYM    DATA     BIT       SPI0CN0_RXOVRN
      000000D0H.4 SFRSYM    DATA     BIT       PSW_RS1
      00000095H   SFRSYM    DATA     BYTE      SBRLL1
      000000C8H.2 SFRSYM    DATA     BIT       SCON1_RBX
      000000C8H   SFRSYM    DATA     BIT       TMR2CN0_T2XCLK0
      000000C8H.1 SFRSYM    DATA     BIT       TMR2CN0_T2XCLK1
      000000C8H.3 SFRSYM    DATA     BIT       SCON1_TBX
      000000E8H.7 SFRSYM    DATA     BIT       ADC0CN0_ADEN
      000000BEH   SFRSYM    DATA     BYTE      USB0CDCN
      00000089H   SFRSYM    DATA     BYTE      TMOD
      00000088H   SFRSYM    DATA     BYTE      TCON
      000000CFH   SFRSYM    DATA     BYTE      CRC0FLIP
      000000D0H   SFRSYM    DATA     BIT       PSW_PARITY
      000000A8H.4 SFRSYM    DATA     BIT       IE_ES0
      0000009FH   SFRSYM    DATA     BYTE      CMP0MX
      00000098H   SFRSYM    DATA     BIT       TMR4CN0_T4XCLK0
      000000A8H.1 SFRSYM    DATA     BIT       IE_ET0
      000000AAH   SFRSYM    DATA     BYTE      CMP1MX
      00000098H.1 SFRSYM    DATA     BIT       TMR4CN0_T4XCLK1
      000000A8H.3 SFRSYM    DATA     BIT       IE_ET1
      000000D4H   SFRSYM    DATA     BYTE      P0SKIP
      000000D8H   SFRSYM    DATA     BIT       UART1FCN1_RIE
      000000A8H.5 SFRSYM    DATA     BIT       IE_ET2
      000000D5H   SFRSYM    DATA     BYTE      P1SKIP
      000000CCH   SFRSYM    DATA     BYTE      P2SKIP
      000000E8H   SFRSYM    DATA     BYTE      ADC0CN0
      000000D8H.4 SFRSYM    DATA     BIT       UART1FCN1_TIE
      000000A8H   SFRSYM    DATA     BIT       IE_EX0
      000000B2H   SFRSYM    DATA     BYTE      ADC0CN1
      000000D8H.6 SFRSYM    DATA     BIT       PCA0CN0_CR
      000000A8H.2 SFRSYM    DATA     BIT       IE_EX1
      000000C8H.7 SFRSYM    DATA     BIT       SCON1_OVR
      00000098H.7 SFRSYM    DATA     BIT       SCON0_SMODE
      000000B5H   SFRSYM    DATA     BYTE      DEVICEID
      000000A9H   SFRSYM    DATA     BYTE      CLKSEL
      000000F8H   SFRSYM    DATA     BIT       SPI0CN0_SPIEN
      000000F0H   SFRSYM    DATA     BYTE      B
      000000BEH   SFRSYM    DATA     BYTE      ADC0H
      000000E8H.6 SFRSYM    DATA     BIT       ADC0CN0_ADBMEN
      000000CAH   SFRSYM    DATA     WORD      TMR2RL
      000000BDH   SFRSYM    DATA     BYTE      ADC0L
      00000092H   SFRSYM    DATA     WORD      TMR3RL
      000000A2H   SFRSYM    DATA     WORD      TMR4RL
      000000D8H   SFRSYM    DATA     BYTE      PCA0CN0
      000000E0H   SFRSYM    DATA     BYTE      ACC
      000000FBH   SFRSYM    DATA     WORD      PCA0CP0
LX51 LINKER/LOCATER V4.66.30.0                                                        11/09/2016  15:43:41  PAGE 40


      000000E9H   SFRSYM    DATA     WORD      PCA0CP1
      000000EBH   SFRSYM    DATA     WORD      PCA0CP2
      000000BCH   SFRSYM    DATA     BYTE      I2C0DIN
      000000CEH   SFRSYM    DATA     BYTE      CRC0CN0
      0000008CH   SFRSYM    DATA     BYTE      TH0
      00000086H   SFRSYM    DATA     BYTE      CRC0CN1
      00000080H.2 SFRSYM    DATA     BIT       PB0_SW
      000000B8H.4 SFRSYM    DATA     BIT       IP_PS0
      000000FAH   SFRSYM    DATA     BYTE      UART1FCT
      0000008DH   SFRSYM    DATA     BYTE      TH1
      000000FAH   SFRSYM    DATA     BYTE      PCA0H
      000000F5H   SFRSYM    DATA     BYTE      I2C0FCT
      000000B8H.1 SFRSYM    DATA     BIT       IP_PT0
      000000B8H.3 SFRSYM    DATA     BIT       IP_PT1
      000000C0H.2 SFRSYM    DATA     BIT       SMB0CN0_ARBLOST
      000000B8H.5 SFRSYM    DATA     BIT       IP_PT2
      0000008AH   SFRSYM    DATA     BYTE      TL0
      000000D0H.5 SFRSYM    DATA     BIT       PSW_F0
      000000A8H.6 SFRSYM    DATA     BIT       IE_ESPI0
      0000008BH   SFRSYM    DATA     BYTE      TL1
      000000F9H   SFRSYM    DATA     BYTE      PCA0L
      000000C0H   SFRSYM    DATA     BIT       SMB0CN0_SI
      000000D0H.1 SFRSYM    DATA     BIT       PSW_F1
      00000080H   SFRSYM    DATA     BIT       P0_B0
      000000B8H   SFRSYM    DATA     BIT       IP_PX0
      00000090H   SFRSYM    DATA     BIT       P1_B0
      00000080H.1 SFRSYM    DATA     BIT       P0_B1
      000000B8H.2 SFRSYM    DATA     BIT       IP_PX1
      0000009EH   SFRSYM    DATA     BYTE      UART1LIN
      0000009BH   SFRSYM    DATA     BYTE      CMP0CN0
      00000088H.1 SFRSYM    DATA     BIT       TCON_IE0
      000000A0H   SFRSYM    DATA     BIT       P2_B0
      00000090H.1 SFRSYM    DATA     BIT       P1_B1
      00000080H.2 SFRSYM    DATA     BIT       P0_B2
      000000BFH   SFRSYM    DATA     BYTE      CMP1CN0
      00000099H   SFRSYM    DATA     BYTE      CMP0CN1
      00000088H.3 SFRSYM    DATA     BIT       TCON_IE1
      000000B0H   SFRSYM    DATA     BIT       P3_B0
      000000A0H.1 SFRSYM    DATA     BIT       P2_B1
      00000090H.2 SFRSYM    DATA     BIT       P1_B2
      00000080H.3 SFRSYM    DATA     BIT       P0_B3
      000000C0H   SFRSYM    DATA     BYTE      SMB0CN0
      000000ACH   SFRSYM    DATA     BYTE      CMP1CN1
      000000B0H.1 SFRSYM    DATA     BIT       P3_B1
      000000A0H.2 SFRSYM    DATA     BIT       P2_B2
      00000090H.3 SFRSYM    DATA     BIT       P1_B3
      00000080H.4 SFRSYM    DATA     BIT       P0_B4
      000000A0H.3 SFRSYM    DATA     BIT       P2_B3
      00000090H.4 SFRSYM    DATA     BIT       P1_B4
      00000080H.5 SFRSYM    DATA     BIT       P0_B5
      000000D8H.1 SFRSYM    DATA     BIT       UART1FCN1_RXTO0
      00000090H.5 SFRSYM    DATA     BIT       P1_B5
      00000080H.6 SFRSYM    DATA     BIT       P0_B6
      000000F5H   SFRSYM    DATA     BYTE      EIP1H
      000000D8H.2 SFRSYM    DATA     BIT       UART1FCN1_RXTO1
      00000090H.6 SFRSYM    DATA     BIT       P1_B6
      00000080H.7 SFRSYM    DATA     BIT       P0_B7
      000000C5H   SFRSYM    DATA     BYTE      SMB0RXLN
      000000F6H   SFRSYM    DATA     BYTE      EIP2H
      00000090H.7 SFRSYM    DATA     BIT       P1_B7
      00000083H   SFRSYM    DATA     BYTE      DPH
      000000C4H   SFRSYM    DATA     BYTE      ADC0GTH
LX51 LINKER/LOCATER V4.66.30.0                                                        11/09/2016  15:43:41  PAGE 41


      000000C8H.7 SFRSYM    DATA     BIT       TMR2CN0_TF2H
      000000C8H.3 SFRSYM    DATA     BIT       TMR2CN0_T2SPLIT
      000000D0H.6 SFRSYM    DATA     BIT       PSW_AC
      000000F8H   SFRSYM    DATA     BYTE      SPI0CN0
      000000C7H   SFRSYM    DATA     BYTE      HFO0CAL
      00000088H.5 SFRSYM    DATA     BIT       TCON_TF0
      00000098H   SFRSYM    DATA     BIT       SCON0_RI
      000000D6H   SFRSYM    DATA     BYTE      HFO1CAL
      00000082H   SFRSYM    DATA     BYTE      DPL
      00000088H.7 SFRSYM    DATA     BIT       TCON_TF1
      000000C8H   SFRSYM    DATA     BIT       SCON1_RI
      00000099H   SFRSYM    DATA     BYTE      SBUF0
      00000087H   SFRSYM    DATA     BYTE      PCON0
      000000F2H   SFRSYM    DATA     BYTE      IPH
      000000C3H   SFRSYM    DATA     BYTE      ADC0GTL
      00000098H.7 SFRSYM    DATA     BIT       TMR4CN0_TF4H
      00000098H.3 SFRSYM    DATA     BIT       TMR4CN0_T4SPLIT
      000000C8H.6 SFRSYM    DATA     BIT       TMR2CN0_TF2L
      00000098H.1 SFRSYM    DATA     BIT       SCON0_TI
      000000E8H   SFRSYM    DATA     BIT       ADC0CN0_ADCM0
      00000092H   SFRSYM    DATA     BYTE      SBUF1
      0000009AH   SFRSYM    DATA     BYTE      PCON1
      000000C6H   SFRSYM    DATA     BYTE      ADC0LTH
      00000088H   SFRSYM    DATA     BIT       TCON_IT0
      000000C8H.1 SFRSYM    DATA     BIT       SCON1_TI
      000000E8H.1 SFRSYM    DATA     BIT       ADC0CN0_ADCM1
      000000EFH   SFRSYM    DATA     BYTE      RSTSRC
      000000FDH   SFRSYM    DATA     BYTE      P0MAT
      000000DEH   SFRSYM    DATA     BYTE      CRC0DAT
      00000088H.2 SFRSYM    DATA     BIT       TCON_IT1
      000000E8H.2 SFRSYM    DATA     BIT       ADC0CN0_ADCM2
      000000D7H   SFRSYM    DATA     BYTE      SFRSTACK
      00000098H   SFRSYM    DATA     BYTE      SCON0
      000000F6H   SFRSYM    DATA     BYTE      PRTDRV
      000000EDH   SFRSYM    DATA     BYTE      P1MAT
      000000E8H.3 SFRSYM    DATA     BIT       ADC0CN0_ADWINT
      00000095H   SFRSYM    DATA     WORD      SBRL1
      000000B2H   SFRSYM    DATA     BYTE      USB0AEC
      00000093H   SFRSYM    DATA     BYTE      SMOD1
      000000C8H   SFRSYM    DATA     BYTE      SCON1
      000000FBH   SFRSYM    DATA     BYTE      P2MAT
      00000098H.6 SFRSYM    DATA     BIT       TMR4CN0_TF4L
      000000E8H.4 SFRSYM    DATA     BIT       ADC0CN0_ADBUSY
      000000D6H   SFRSYM    DATA     BYTE      SMB0ADM
      000000C5H   SFRSYM    DATA     BYTE      ADC0LTL
      000000F8H.5 SFRSYM    DATA     BIT       SPI0CN0_MODF
      000000B8H.6 SFRSYM    DATA     BIT       IP_PSPI0
      0000009CH   SFRSYM    DATA     BYTE      PCA0CLR
      000000C8H   SFRSYM    DATA     BYTE      TMR2CN0
      00000091H   SFRSYM    DATA     BYTE      TMR3CN0
      000000FDH   SFRSYM    DATA     BYTE      TMR2CN1
      00000098H   SFRSYM    DATA     BYTE      TMR4CN0
      000000FEH   SFRSYM    DATA     BYTE      TMR3CN1
      000000FFH   SFRSYM    DATA     BYTE      TMR4CN1
      000000D7H   SFRSYM    DATA     BYTE      SMB0ADR
      00000088H.4 SFRSYM    DATA     BIT       TCON_TR0
      000000C8H.4 SFRSYM    DATA     BIT       TMR2CN0_TF2CEN
      00000088H.6 SFRSYM    DATA     BIT       TCON_TR1
      000000C2H   SFRSYM    DATA     BYTE      SMB0DAT
      000000CDH   SFRSYM    DATA     BYTE      TMR2H
      000000A1H   SFRSYM    DATA     BYTE      SPI0CFG
      00000095H   SFRSYM    DATA     BYTE      TMR3H
LX51 LINKER/LOCATER V4.66.30.0                                                        11/09/2016  15:43:41  PAGE 42


      000000EFH   SFRSYM    DATA     BYTE      HFOCN
      000000D3H   SFRSYM    DATA     BYTE      CRC0CNT
      000000A5H   SFRSYM    DATA     BYTE      TMR4H
      00000098H.4 SFRSYM    DATA     BIT       TMR4CN0_TF4CEN
      000000EFH   SFRSYM    DATA     BYTE      SMB0FCT
      00000096H   SFRSYM    DATA     BYTE      PCA0POL
      000000CCH   SFRSYM    DATA     BYTE      TMR2L
      000000F8H.7 SFRSYM    DATA     BIT       SPI0CN0_SPIF
      000000AEH   SFRSYM    DATA     BYTE      USB0ADR
      00000094H   SFRSYM    DATA     BYTE      TMR3L
      000000DFH   SFRSYM    DATA     BYTE      ADC0PWR
      00000080H   SFRSYM    DATA     BIT       DALI_OUT
      000000A0H.3 SFRSYM    DATA     BIT       EFM_DISP_ENABLE
      000000A8H.7 SFRSYM    DATA     BIT       IE_EA
      000000A4H   SFRSYM    DATA     BYTE      TMR4L
      000000AFH   SFRSYM    DATA     BYTE      USB0DAT
      000000C8H.5 SFRSYM    DATA     BIT       TMR2CN0_TF2LEN
      000000F8H.6 SFRSYM    DATA     BIT       SPI0CN0_WCOL
      000000F8H.2 SFRSYM    DATA     BIT       SPI0CN0_NSSMD0
      000000D0H.7 SFRSYM    DATA     BIT       PSW_CY
      0000009DH   SFRSYM    DATA     BYTE      UART1FCN0
      000000A3H   SFRSYM    DATA     BYTE      SPI0DAT
      000000ADH   SFRSYM    DATA     BYTE      I2C0FCN0
      000000F8H.3 SFRSYM    DATA     BIT       SPI0CN0_NSSMD1
      000000BDH   SFRSYM    DATA     WORD      ADC0
      000000D8H   SFRSYM    DATA     BYTE      UART1FCN1
      000000ABH   SFRSYM    DATA     BYTE      I2C0FCN1
      00000098H.5 SFRSYM    DATA     BIT       TMR4CN0_TF4LEN
      000000D0H   SFRSYM    DATA     BYTE      PSW
      000000F7H   SFRSYM    DATA     BYTE      PCA0PWM
      000000F7H   SFRSYM    DATA     BYTE      SPI0FCT
      000000B6H   SFRSYM    DATA     BYTE      REVID
      000000B7H   SFRSYM    DATA     BYTE      FLKEY
      000000B3H   SFRSYM    DATA     BYTE      ADC0AC

      01000763H   BLOCK     CODE     ---       LVL=0
      01000763H   BLOCK     CODE     NEAR LAB  LVL=1
      00000013H   SYMBOL    DATA     BYTE      SFRPAGE_save
      ---         BLOCKEND  ---      ---       LVL=1
      01000763H   LINE      CODE     ---       #24
      01000763H   LINE      CODE     ---       #27
      01000766H   LINE      CODE     ---       #29
      01000769H   LINE      CODE     ---       #32
      0100076CH   LINE      CODE     ---       #33
      0100076FH   LINE      CODE     ---       #34
      01000772H   LINE      CODE     ---       #35
      01000775H   LINE      CODE     ---       #36
      01000778H   LINE      CODE     ---       #37
      0100077BH   LINE      CODE     ---       #39
      0100077EH   LINE      CODE     ---       #43
      ---         BLOCKEND  ---      ---       LVL=0

      01000864H   BLOCK     CODE     ---       LVL=0
      01000864H   LINE      CODE     ---       #49
      01000864H   LINE      CODE     ---       #52
      01000867H   LINE      CODE     ---       #53
      0100086AH   LINE      CODE     ---       #57
      ---         BLOCKEND  ---      ---       LVL=0

      010007D3H   BLOCK     CODE     ---       LVL=0
      010007D3H   LINE      CODE     ---       #62
      010007D3H   LINE      CODE     ---       #76
LX51 LINKER/LOCATER V4.66.30.0                                                        11/09/2016  15:43:41  PAGE 43


      010007D6H   LINE      CODE     ---       #77
      010007D9H   LINE      CODE     ---       #95
      010007DCH   LINE      CODE     ---       #96
      010007DFH   LINE      CODE     ---       #107
      ---         BLOCKEND  ---      ---       LVL=0

      0100086BH   BLOCK     CODE     ---       LVL=0
      0100086BH   LINE      CODE     ---       #112
      0100086BH   LINE      CODE     ---       #126
      0100086EH   LINE      CODE     ---       #127
      01000871H   LINE      CODE     ---       #141
      ---         BLOCKEND  ---      ---       LVL=0

      010007C5H   BLOCK     CODE     ---       LVL=0
      010007C5H   BLOCK     CODE     NEAR LAB  LVL=1
      00000007H   SYMBOL    DATA     BYTE      TCON_save
      ---         BLOCKEND  ---      ---       LVL=1
      010007C5H   LINE      CODE     ---       #146
      010007C5H   LINE      CODE     ---       #149
      010007C7H   LINE      CODE     ---       #151
      010007CAH   LINE      CODE     ---       #154
      010007CDH   LINE      CODE     ---       #155
      010007D0H   LINE      CODE     ---       #157
      010007D2H   LINE      CODE     ---       #162
      ---         BLOCKEND  ---      ---       LVL=0

      01000802H   BLOCK     CODE     ---       LVL=0
      01000802H   LINE      CODE     ---       #167
      01000802H   LINE      CODE     ---       #184
      01000805H   LINE      CODE     ---       #206
      01000808H   LINE      CODE     ---       #214
      0100080BH   LINE      CODE     ---       #218
      ---         BLOCKEND  ---      ---       LVL=0

      010007E0H   BLOCK     CODE     ---       LVL=0
      010007E0H   LINE      CODE     ---       #223
      010007E0H   LINE      CODE     ---       #227
      010007E3H   LINE      CODE     ---       #231
      010007E6H   LINE      CODE     ---       #235
      010007E9H   LINE      CODE     ---       #253
      010007ECH   LINE      CODE     ---       #270
      ---         BLOCKEND  ---      ---       LVL=0

      ---         MODULE    ---      ---       INTERRUPTS
      0100060EH   PUBLIC    CODE     ---       TIMER0_ISR
      01000694H   PUBLIC    CODE     ---       TIMER1_ISR
      01000653H   PUBLIC    CODE     ---       INT1_ISR
      000000A2H   SFRSYM    DATA     BYTE      SPI0CKR
      00000080H   SFRSYM    DATA     BYTE      P0
      000000C8H.6 SFRSYM    DATA     BIT       SCON1_PERR
      000000D0H.2 SFRSYM    DATA     BIT       PSW_OV
      00000090H   SFRSYM    DATA     BYTE      P1
      000000F8H.1 SFRSYM    DATA     BIT       SPI0CN0_TXNF
      00000097H   SFRSYM    DATA     BYTE      WDTCN
      000000A0H   SFRSYM    DATA     BYTE      P2
      000000B0H   SFRSYM    DATA     BYTE      P3
      000000BCH   SFRSYM    DATA     BYTE      ADC0CF
      000000C0H.7 SFRSYM    DATA     BIT       SMB0CN0_MASTER
      000000F9H   SFRSYM    DATA     WORD      PCA0
      000000E6H   SFRSYM    DATA     BYTE      EIE1
      000000C0H.1 SFRSYM    DATA     BIT       SMB0CN0_ACK
      000000B3H   SFRSYM    DATA     BYTE      USB0XCN
LX51 LINKER/LOCATER V4.66.30.0                                                        11/09/2016  15:43:41  PAGE 44


      000000CEH   SFRSYM    DATA     BYTE      EIE2
      00000090H.4 SFRSYM    DATA     BIT       LED1
      00000090H.5 SFRSYM    DATA     BIT       LED2
      0000008FH   SFRSYM    DATA     BYTE      PSCTL
      00000090H.6 SFRSYM    DATA     BIT       LED3
      000000E4H   SFRSYM    DATA     BYTE      IT01CF
      000000B0H.1 SFRSYM    DATA     BIT       LED4
      000000C0H.6 SFRSYM    DATA     BIT       SMB0CN0_TXMODE
      000000ADH   SFRSYM    DATA     BYTE      DERIVID
      00000080H.4 SFRSYM    DATA     BIT       LED5
      000000A7H   SFRSYM    DATA     BYTE      SFRPAGE
      000000A4H   SFRSYM    DATA     BYTE      P0MDOUT
      000000BFH   SFRSYM    DATA     BYTE      USB0CDSTA
      000000A5H   SFRSYM    DATA     BYTE      P1MDOUT
      000000E8H.5 SFRSYM    DATA     BIT       ADC0CN0_ADINT
      000000CBH   SFRSYM    DATA     BYTE      TMR2RLH
      000000A6H   SFRSYM    DATA     BYTE      P2MDOUT
      000000A8H   SFRSYM    DATA     BYTE      IE
      00000093H   SFRSYM    DATA     BYTE      TMR3RLH
      0000009CH   SFRSYM    DATA     BYTE      P3MDOUT
      000000A3H   SFRSYM    DATA     BYTE      TMR4RLH
      000000F3H   SFRSYM    DATA     BYTE      EIP1
      000000F4H   SFRSYM    DATA     BYTE      EIP2
      00000098H.2 SFRSYM    DATA     BIT       SCON0_RB8
      000000CAH   SFRSYM    DATA     BYTE      TMR2RLL
      000000FCH   SFRSYM    DATA     BYTE      PCA0CPH0
      00000080H.7 SFRSYM    DATA     BIT       DALI_IN
      00000092H   SFRSYM    DATA     BYTE      TMR3RLL
      000000EAH   SFRSYM    DATA     BYTE      PCA0CPH1
      00000098H.3 SFRSYM    DATA     BIT       SCON0_TB8
      000000F0H   SFRSYM    DATA     BIT       B_B0
      00000082H   SFRSYM    DATA     WORD      DP
      000000A2H   SFRSYM    DATA     BYTE      TMR4RLL
      000000ECH   SFRSYM    DATA     BYTE      PCA0CPH2
      000000F0H.1 SFRSYM    DATA     BIT       B_B1
      000000C3H   SFRSYM    DATA     WORD      ADC0GT
      000000BDH   SFRSYM    DATA     BYTE      I2C0SLAD
      000000D8H.3 SFRSYM    DATA     BIT       UART1FCN1_RFRQ
      000000F0H.2 SFRSYM    DATA     BIT       B_B2
      000000CFH   SFRSYM    DATA     BYTE      SFRPGCN
      000000FBH   SFRSYM    DATA     BYTE      PCA0CPL0
      000000F0H.3 SFRSYM    DATA     BIT       B_B3
      000000D9H   SFRSYM    DATA     BYTE      PCA0MD
      000000DAH   SFRSYM    DATA     BYTE      PCA0CPM0
      000000E9H   SFRSYM    DATA     BYTE      PCA0CPL1
      000000D8H.7 SFRSYM    DATA     BIT       UART1FCN1_TFRQ
      000000F0H.4 SFRSYM    DATA     BIT       B_B4
      000000DBH   SFRSYM    DATA     BYTE      PCA0CPM1
      000000EBH   SFRSYM    DATA     BYTE      PCA0CPL2
      000000F0H.5 SFRSYM    DATA     BIT       B_B5
      000000DCH   SFRSYM    DATA     BYTE      PCA0CPM2
      000000B8H   SFRSYM    DATA     BYTE      IP
      000000B9H   SFRSYM    DATA     BYTE      ADC0TK
      000000F0H.6 SFRSYM    DATA     BIT       B_B6
      000000C5H   SFRSYM    DATA     WORD      ADC0LT
      000000D8H.6 SFRSYM    DATA     BIT       UART1FCN1_TXNF
      00000098H.5 SFRSYM    DATA     BIT       SCON0_MCE
      000000F0H.7 SFRSYM    DATA     BIT       B_B7
      000000C3H   SFRSYM    DATA     BYTE      SMB0FCN0
      000000E1H   SFRSYM    DATA     BYTE      XBR0
      000000C4H   SFRSYM    DATA     BYTE      SMB0FCN1
      000000C1H   SFRSYM    DATA     BYTE      SMB0CF
LX51 LINKER/LOCATER V4.66.30.0                                                        11/09/2016  15:43:41  PAGE 45


      000000E2H   SFRSYM    DATA     BYTE      XBR1
      000000C1H   SFRSYM    DATA     BYTE      PFE0CN
      000000E7H   SFRSYM    DATA     BYTE      EMI0CN
      000000C0H.5 SFRSYM    DATA     BIT       SMB0CN0_STA
      000000E3H   SFRSYM    DATA     BYTE      XBR2
      000000BBH   SFRSYM    DATA     BYTE      ADC0MX
      000000E0H   SFRSYM    DATA     BIT       ACC_ACC0
      000000D1H   SFRSYM    DATA     BYTE      REF0CN
      0000008EH   SFRSYM    DATA     BYTE      CKCON0
      000000E0H.1 SFRSYM    DATA     BIT       ACC_ACC1
      000000C9H   SFRSYM    DATA     BYTE      REG0CN
      000000DDH   SFRSYM    DATA     BYTE      CRC0IN
      000000A6H   SFRSYM    DATA     BYTE      CKCON1
      000000C8H.2 SFRSYM    DATA     BIT       TMR2CN0_TR2
      000000E0H.2 SFRSYM    DATA     BIT       ACC_ACC2
      000000C6H   SFRSYM    DATA     BYTE      REG1CN
      000000E0H.3 SFRSYM    DATA     BIT       ACC_ACC3
      00000081H   SFRSYM    DATA     BYTE      SP
      0000009DH   SFRSYM    DATA     BYTE      CMP0MD
      000000E0H.4 SFRSYM    DATA     BIT       ACC_ACC4
      000000B1H   SFRSYM    DATA     BYTE      LFO0CN
      000000ABH   SFRSYM    DATA     BYTE      CMP1MD
      000000D8H   SFRSYM    DATA     BIT       PCA0CN0_CCF0
      000000E0H.5 SFRSYM    DATA     BIT       ACC_ACC5
      000000B5H   SFRSYM    DATA     BYTE      USB0CF
      00000098H.2 SFRSYM    DATA     BIT       TMR4CN0_TR4
      000000D8H.1 SFRSYM    DATA     BIT       PCA0CN0_CCF1
      000000E0H.6 SFRSYM    DATA     BIT       ACC_ACC6
      000000CCH   SFRSYM    DATA     WORD      TMR2
      0000009AH   SFRSYM    DATA     BYTE      SPI0FCN0
      000000D8H.2 SFRSYM    DATA     BIT       PCA0CN0_CCF2
      000000E0H.7 SFRSYM    DATA     BIT       ACC_ACC7
      00000094H   SFRSYM    DATA     WORD      TMR3
      0000009BH   SFRSYM    DATA     BYTE      SPI0FCN1
      000000A4H   SFRSYM    DATA     WORD      TMR4
      00000094H   SFRSYM    DATA     BYTE      SBCON1
      000000C0H.3 SFRSYM    DATA     BIT       SMB0CN0_ACKRQ
      000000FFH   SFRSYM    DATA     BYTE      VDM0CN
      000000F1H   SFRSYM    DATA     BYTE      P0MDIN
      00000098H.4 SFRSYM    DATA     BIT       SCON0_REN
      000000ACH   SFRSYM    DATA     BYTE      SMB0TC
      000000F2H   SFRSYM    DATA     BYTE      P1MDIN
      000000C8H.4 SFRSYM    DATA     BIT       SCON1_REN
      000000F3H   SFRSYM    DATA     BYTE      P2MDIN
      000000C0H.4 SFRSYM    DATA     BIT       SMB0CN0_STO
      000000B6H   SFRSYM    DATA     BYTE      USB0CDCF
      000000F4H   SFRSYM    DATA     BYTE      P3MDIN
      000000B9H   SFRSYM    DATA     BYTE      I2C0STAT
      000000BBH   SFRSYM    DATA     BYTE      I2C0DOUT
      00000096H   SFRSYM    DATA     BYTE      SBRLH1
      000000FEH   SFRSYM    DATA     BYTE      P0MASK
      000000D8H.5 SFRSYM    DATA     BIT       UART1FCN1_TXHOLD
      000000EEH   SFRSYM    DATA     BYTE      P1MASK
      000000FCH   SFRSYM    DATA     BYTE      P2MASK
      000000D0H.3 SFRSYM    DATA     BIT       PSW_RS0
      000000D8H.7 SFRSYM    DATA     BIT       PCA0CN0_CF
      0000009EH   SFRSYM    DATA     BYTE      PCA0CENT
      000000BAH   SFRSYM    DATA     BYTE      I2C0CN0
      000000D2H   SFRSYM    DATA     BYTE      CRC0ST
      000000F8H.4 SFRSYM    DATA     BIT       SPI0CN0_RXOVRN
      000000D0H.4 SFRSYM    DATA     BIT       PSW_RS1
      00000095H   SFRSYM    DATA     BYTE      SBRLL1
LX51 LINKER/LOCATER V4.66.30.0                                                        11/09/2016  15:43:41  PAGE 46


      000000C8H.2 SFRSYM    DATA     BIT       SCON1_RBX
      000000C8H   SFRSYM    DATA     BIT       TMR2CN0_T2XCLK0
      000000C8H.1 SFRSYM    DATA     BIT       TMR2CN0_T2XCLK1
      000000C8H.3 SFRSYM    DATA     BIT       SCON1_TBX
      000000E8H.7 SFRSYM    DATA     BIT       ADC0CN0_ADEN
      000000BEH   SFRSYM    DATA     BYTE      USB0CDCN
      00000089H   SFRSYM    DATA     BYTE      TMOD
      00000088H   SFRSYM    DATA     BYTE      TCON
      000000CFH   SFRSYM    DATA     BYTE      CRC0FLIP
      000000D0H   SFRSYM    DATA     BIT       PSW_PARITY
      000000A8H.4 SFRSYM    DATA     BIT       IE_ES0
      0000009FH   SFRSYM    DATA     BYTE      CMP0MX
      00000098H   SFRSYM    DATA     BIT       TMR4CN0_T4XCLK0
      000000A8H.1 SFRSYM    DATA     BIT       IE_ET0
      000000AAH   SFRSYM    DATA     BYTE      CMP1MX
      00000098H.1 SFRSYM    DATA     BIT       TMR4CN0_T4XCLK1
      000000A8H.3 SFRSYM    DATA     BIT       IE_ET1
      000000D4H   SFRSYM    DATA     BYTE      P0SKIP
      000000D8H   SFRSYM    DATA     BIT       UART1FCN1_RIE
      000000A8H.5 SFRSYM    DATA     BIT       IE_ET2
      000000D5H   SFRSYM    DATA     BYTE      P1SKIP
      000000CCH   SFRSYM    DATA     BYTE      P2SKIP
      000000E8H   SFRSYM    DATA     BYTE      ADC0CN0
      000000D8H.4 SFRSYM    DATA     BIT       UART1FCN1_TIE
      000000A8H   SFRSYM    DATA     BIT       IE_EX0
      000000B2H   SFRSYM    DATA     BYTE      ADC0CN1
      000000D8H.6 SFRSYM    DATA     BIT       PCA0CN0_CR
      000000A8H.2 SFRSYM    DATA     BIT       IE_EX1
      000000C8H.7 SFRSYM    DATA     BIT       SCON1_OVR
      00000098H.7 SFRSYM    DATA     BIT       SCON0_SMODE
      000000B5H   SFRSYM    DATA     BYTE      DEVICEID
      000000A9H   SFRSYM    DATA     BYTE      CLKSEL
      000000F8H   SFRSYM    DATA     BIT       SPI0CN0_SPIEN
      000000F0H   SFRSYM    DATA     BYTE      B
      000000BEH   SFRSYM    DATA     BYTE      ADC0H
      000000E8H.6 SFRSYM    DATA     BIT       ADC0CN0_ADBMEN
      000000CAH   SFRSYM    DATA     WORD      TMR2RL
      000000BDH   SFRSYM    DATA     BYTE      ADC0L
      00000092H   SFRSYM    DATA     WORD      TMR3RL
      000000A2H   SFRSYM    DATA     WORD      TMR4RL
      000000D8H   SFRSYM    DATA     BYTE      PCA0CN0
      000000E0H   SFRSYM    DATA     BYTE      ACC
      000000FBH   SFRSYM    DATA     WORD      PCA0CP0
      000000E9H   SFRSYM    DATA     WORD      PCA0CP1
      000000EBH   SFRSYM    DATA     WORD      PCA0CP2
      000000BCH   SFRSYM    DATA     BYTE      I2C0DIN
      000000CEH   SFRSYM    DATA     BYTE      CRC0CN0
      0000008CH   SFRSYM    DATA     BYTE      TH0
      00000086H   SFRSYM    DATA     BYTE      CRC0CN1
      00000080H.2 SFRSYM    DATA     BIT       PB0_SW
      000000B8H.4 SFRSYM    DATA     BIT       IP_PS0
      000000FAH   SFRSYM    DATA     BYTE      UART1FCT
      0000008DH   SFRSYM    DATA     BYTE      TH1
      000000FAH   SFRSYM    DATA     BYTE      PCA0H
      000000F5H   SFRSYM    DATA     BYTE      I2C0FCT
      000000B8H.1 SFRSYM    DATA     BIT       IP_PT0
      000000B8H.3 SFRSYM    DATA     BIT       IP_PT1
      000000C0H.2 SFRSYM    DATA     BIT       SMB0CN0_ARBLOST
      000000B8H.5 SFRSYM    DATA     BIT       IP_PT2
      0000008AH   SFRSYM    DATA     BYTE      TL0
      000000D0H.5 SFRSYM    DATA     BIT       PSW_F0
      000000A8H.6 SFRSYM    DATA     BIT       IE_ESPI0
LX51 LINKER/LOCATER V4.66.30.0                                                        11/09/2016  15:43:41  PAGE 47


      0000008BH   SFRSYM    DATA     BYTE      TL1
      000000F9H   SFRSYM    DATA     BYTE      PCA0L
      000000C0H   SFRSYM    DATA     BIT       SMB0CN0_SI
      000000D0H.1 SFRSYM    DATA     BIT       PSW_F1
      00000080H   SFRSYM    DATA     BIT       P0_B0
      000000B8H   SFRSYM    DATA     BIT       IP_PX0
      00000090H   SFRSYM    DATA     BIT       P1_B0
      00000080H.1 SFRSYM    DATA     BIT       P0_B1
      000000B8H.2 SFRSYM    DATA     BIT       IP_PX1
      0000009EH   SFRSYM    DATA     BYTE      UART1LIN
      0000009BH   SFRSYM    DATA     BYTE      CMP0CN0
      00000088H.1 SFRSYM    DATA     BIT       TCON_IE0
      000000A0H   SFRSYM    DATA     BIT       P2_B0
      00000090H.1 SFRSYM    DATA     BIT       P1_B1
      00000080H.2 SFRSYM    DATA     BIT       P0_B2
      000000BFH   SFRSYM    DATA     BYTE      CMP1CN0
      00000099H   SFRSYM    DATA     BYTE      CMP0CN1
      00000088H.3 SFRSYM    DATA     BIT       TCON_IE1
      000000B0H   SFRSYM    DATA     BIT       P3_B0
      000000A0H.1 SFRSYM    DATA     BIT       P2_B1
      00000090H.2 SFRSYM    DATA     BIT       P1_B2
      00000080H.3 SFRSYM    DATA     BIT       P0_B3
      000000C0H   SFRSYM    DATA     BYTE      SMB0CN0
      000000ACH   SFRSYM    DATA     BYTE      CMP1CN1
      000000B0H.1 SFRSYM    DATA     BIT       P3_B1
      000000A0H.2 SFRSYM    DATA     BIT       P2_B2
      00000090H.3 SFRSYM    DATA     BIT       P1_B3
      00000080H.4 SFRSYM    DATA     BIT       P0_B4
      000000A0H.3 SFRSYM    DATA     BIT       P2_B3
      00000090H.4 SFRSYM    DATA     BIT       P1_B4
      00000080H.5 SFRSYM    DATA     BIT       P0_B5
      000000D8H.1 SFRSYM    DATA     BIT       UART1FCN1_RXTO0
      00000090H.5 SFRSYM    DATA     BIT       P1_B5
      00000080H.6 SFRSYM    DATA     BIT       P0_B6
      000000F5H   SFRSYM    DATA     BYTE      EIP1H
      000000D8H.2 SFRSYM    DATA     BIT       UART1FCN1_RXTO1
      00000090H.6 SFRSYM    DATA     BIT       P1_B6
      00000080H.7 SFRSYM    DATA     BIT       P0_B7
      000000C5H   SFRSYM    DATA     BYTE      SMB0RXLN
      000000F6H   SFRSYM    DATA     BYTE      EIP2H
      00000090H.7 SFRSYM    DATA     BIT       P1_B7
      00000083H   SFRSYM    DATA     BYTE      DPH
      000000C4H   SFRSYM    DATA     BYTE      ADC0GTH
      000000C8H.7 SFRSYM    DATA     BIT       TMR2CN0_TF2H
      000000C8H.3 SFRSYM    DATA     BIT       TMR2CN0_T2SPLIT
      000000D0H.6 SFRSYM    DATA     BIT       PSW_AC
      000000F8H   SFRSYM    DATA     BYTE      SPI0CN0
      000000C7H   SFRSYM    DATA     BYTE      HFO0CAL
      00000088H.5 SFRSYM    DATA     BIT       TCON_TF0
      00000098H   SFRSYM    DATA     BIT       SCON0_RI
      000000D6H   SFRSYM    DATA     BYTE      HFO1CAL
      00000082H   SFRSYM    DATA     BYTE      DPL
      00000088H.7 SFRSYM    DATA     BIT       TCON_TF1
      000000C8H   SFRSYM    DATA     BIT       SCON1_RI
      00000099H   SFRSYM    DATA     BYTE      SBUF0
      00000087H   SFRSYM    DATA     BYTE      PCON0
      000000F2H   SFRSYM    DATA     BYTE      IPH
      000000C3H   SFRSYM    DATA     BYTE      ADC0GTL
      00000098H.7 SFRSYM    DATA     BIT       TMR4CN0_TF4H
      00000098H.3 SFRSYM    DATA     BIT       TMR4CN0_T4SPLIT
      000000C8H.6 SFRSYM    DATA     BIT       TMR2CN0_TF2L
      00000098H.1 SFRSYM    DATA     BIT       SCON0_TI
LX51 LINKER/LOCATER V4.66.30.0                                                        11/09/2016  15:43:41  PAGE 48


      000000E8H   SFRSYM    DATA     BIT       ADC0CN0_ADCM0
      00000092H   SFRSYM    DATA     BYTE      SBUF1
      0000009AH   SFRSYM    DATA     BYTE      PCON1
      000000C6H   SFRSYM    DATA     BYTE      ADC0LTH
      00000088H   SFRSYM    DATA     BIT       TCON_IT0
      000000C8H.1 SFRSYM    DATA     BIT       SCON1_TI
      000000E8H.1 SFRSYM    DATA     BIT       ADC0CN0_ADCM1
      000000EFH   SFRSYM    DATA     BYTE      RSTSRC
      000000FDH   SFRSYM    DATA     BYTE      P0MAT
      000000DEH   SFRSYM    DATA     BYTE      CRC0DAT
      00000088H.2 SFRSYM    DATA     BIT       TCON_IT1
      000000E8H.2 SFRSYM    DATA     BIT       ADC0CN0_ADCM2
      000000D7H   SFRSYM    DATA     BYTE      SFRSTACK
      00000098H   SFRSYM    DATA     BYTE      SCON0
      000000F6H   SFRSYM    DATA     BYTE      PRTDRV
      000000EDH   SFRSYM    DATA     BYTE      P1MAT
      000000E8H.3 SFRSYM    DATA     BIT       ADC0CN0_ADWINT
      00000095H   SFRSYM    DATA     WORD      SBRL1
      000000B2H   SFRSYM    DATA     BYTE      USB0AEC
      00000093H   SFRSYM    DATA     BYTE      SMOD1
      000000C8H   SFRSYM    DATA     BYTE      SCON1
      000000FBH   SFRSYM    DATA     BYTE      P2MAT
      00000098H.6 SFRSYM    DATA     BIT       TMR4CN0_TF4L
      000000E8H.4 SFRSYM    DATA     BIT       ADC0CN0_ADBUSY
      000000D6H   SFRSYM    DATA     BYTE      SMB0ADM
      000000C5H   SFRSYM    DATA     BYTE      ADC0LTL
      000000F8H.5 SFRSYM    DATA     BIT       SPI0CN0_MODF
      000000B8H.6 SFRSYM    DATA     BIT       IP_PSPI0
      0000009CH   SFRSYM    DATA     BYTE      PCA0CLR
      000000C8H   SFRSYM    DATA     BYTE      TMR2CN0
      00000091H   SFRSYM    DATA     BYTE      TMR3CN0
      000000FDH   SFRSYM    DATA     BYTE      TMR2CN1
      00000098H   SFRSYM    DATA     BYTE      TMR4CN0
      000000FEH   SFRSYM    DATA     BYTE      TMR3CN1
      000000FFH   SFRSYM    DATA     BYTE      TMR4CN1
      000000D7H   SFRSYM    DATA     BYTE      SMB0ADR
      00000088H.4 SFRSYM    DATA     BIT       TCON_TR0
      000000C8H.4 SFRSYM    DATA     BIT       TMR2CN0_TF2CEN
      00000088H.6 SFRSYM    DATA     BIT       TCON_TR1
      000000C2H   SFRSYM    DATA     BYTE      SMB0DAT
      000000CDH   SFRSYM    DATA     BYTE      TMR2H
      000000A1H   SFRSYM    DATA     BYTE      SPI0CFG
      00000095H   SFRSYM    DATA     BYTE      TMR3H
      000000EFH   SFRSYM    DATA     BYTE      HFOCN
      000000D3H   SFRSYM    DATA     BYTE      CRC0CNT
      000000A5H   SFRSYM    DATA     BYTE      TMR4H
      00000098H.4 SFRSYM    DATA     BIT       TMR4CN0_TF4CEN
      000000EFH   SFRSYM    DATA     BYTE      SMB0FCT
      00000096H   SFRSYM    DATA     BYTE      PCA0POL
      000000CCH   SFRSYM    DATA     BYTE      TMR2L
      000000F8H.7 SFRSYM    DATA     BIT       SPI0CN0_SPIF
      000000AEH   SFRSYM    DATA     BYTE      USB0ADR
      00000094H   SFRSYM    DATA     BYTE      TMR3L
      000000DFH   SFRSYM    DATA     BYTE      ADC0PWR
      00000080H   SFRSYM    DATA     BIT       DALI_OUT
      000000A0H.3 SFRSYM    DATA     BIT       EFM_DISP_ENABLE
      000000A8H.7 SFRSYM    DATA     BIT       IE_EA
      000000A4H   SFRSYM    DATA     BYTE      TMR4L
      000000AFH   SFRSYM    DATA     BYTE      USB0DAT
      000000C8H.5 SFRSYM    DATA     BIT       TMR2CN0_TF2LEN
      000000F8H.6 SFRSYM    DATA     BIT       SPI0CN0_WCOL
      000000F8H.2 SFRSYM    DATA     BIT       SPI0CN0_NSSMD0
LX51 LINKER/LOCATER V4.66.30.0                                                        11/09/2016  15:43:41  PAGE 49


      000000D0H.7 SFRSYM    DATA     BIT       PSW_CY
      0000009DH   SFRSYM    DATA     BYTE      UART1FCN0
      000000A3H   SFRSYM    DATA     BYTE      SPI0DAT
      000000ADH   SFRSYM    DATA     BYTE      I2C0FCN0
      000000F8H.3 SFRSYM    DATA     BIT       SPI0CN0_NSSMD1
      000000BDH   SFRSYM    DATA     WORD      ADC0
      000000D8H   SFRSYM    DATA     BYTE      UART1FCN1
      000000ABH   SFRSYM    DATA     BYTE      I2C0FCN1
      00000098H.5 SFRSYM    DATA     BIT       TMR4CN0_TF4LEN
      000000D0H   SFRSYM    DATA     BYTE      PSW
      000000F7H   SFRSYM    DATA     BYTE      PCA0PWM
      000000F7H   SFRSYM    DATA     BYTE      SPI0FCT
      000000B6H   SFRSYM    DATA     BYTE      REVID
      000000B7H   SFRSYM    DATA     BYTE      FLKEY
      000000B3H   SFRSYM    DATA     BYTE      ADC0AC

      01000653H   BLOCK     CODE     ---       LVL=0
      01000653H   LINE      CODE     ---       #42
      01000670H   LINE      CODE     ---       #51
      01000679H   LINE      CODE     ---       #56
      ---         BLOCKEND  ---      ---       LVL=0

      01000694H   BLOCK     CODE     ---       LVL=0
      01000694H   LINE      CODE     ---       #69
      010006B1H   LINE      CODE     ---       #77
      010006B9H   LINE      CODE     ---       #81
      ---         BLOCKEND  ---      ---       LVL=0

      0100060EH   BLOCK     CODE     ---       LVL=0
      0100060EH   LINE      CODE     ---       #94
      0100062BH   LINE      CODE     ---       #98
      01000632H   LINE      CODE     ---       #99
      01000635H   LINE      CODE     ---       #100
      01000638H   LINE      CODE     ---       #102
      ---         BLOCKEND  ---      ---       LVL=0

      ---         MODULE    ---      ---       ?C_STARTUP
      01000000H   PUBLIC    CODE     NEAR LAB  ?C_STARTUP
      000000E0H   SFRSYM    DATA     BYTE      ACC
      000000F0H   SFRSYM    DATA     BYTE      B
      00000083H   SFRSYM    DATA     BYTE      DPH
      00000082H   SFRSYM    DATA     BYTE      DPL
      000000A0H   SFRSYM    DATA     BYTE      PPAGE_SFR
      00000081H   SFRSYM    DATA     BYTE      SP
      00000000H   SYMBOL    NUMBER   ---       IBPSTACK
      00000100H   SYMBOL    NUMBER   ---       IBPSTACKTOP
      00000080H   SYMBOL    NUMBER   ---       IDATALEN
      010003A8H   SYMBOL    CODE     NEAR LAB  IDATALOOP
      00000000H   SYMBOL    NUMBER   ---       PBPSTACK
      00000100H   SYMBOL    NUMBER   ---       PBPSTACKTOP
      00000000H   SYMBOL    NUMBER   ---       PDATALEN
      00000000H   SYMBOL    NUMBER   ---       PDATASTART
      00000000H   SYMBOL    NUMBER   ---       PPAGE
      00000000H   SYMBOL    NUMBER   ---       PPAGEENABLE
      010003A5H   SYMBOL    CODE     NEAR LAB  STARTUP1
      00000000H   SYMBOL    NUMBER   ---       XBPSTACK
      00010000H   SYMBOL    NUMBER   ---       XBPSTACKTOP
      00000000H   SYMBOL    NUMBER   ---       XDATALEN
      00000000H   SYMBOL    NUMBER   ---       XDATASTART

      01000000H   BLOCK     CODE     NEAR LAB  LVL=0
      01000000H   LINE      CODE     ---       #126
LX51 LINKER/LOCATER V4.66.30.0                                                        11/09/2016  15:43:41  PAGE 50


      ---         BLOCKEND  ---      ---       LVL=0

      010003A5H   BLOCK     CODE     NEAR LAB  LVL=0
      010003A5H   LINE      CODE     ---       #138
      010003A7H   LINE      CODE     ---       #139
      010003A8H   LINE      CODE     ---       #140
      010003A9H   LINE      CODE     ---       #141
      010003ABH   LINE      CODE     ---       #190
      010003AEH   LINE      CODE     ---       #201
      ---         BLOCKEND  ---      ---       LVL=0

      ---         MODULE    ---      ---       ?C_INIT
      010003ECH   PUBLIC    CODE     ---       ?C_START

      ---         MODULE    ---      ---       ?C?COPY
      010002D4H   PUBLIC    CODE     ---       ?C?COPY



*** WARNING L15: MULTIPLE CALL TO FUNCTION
    NAME:    _DALIRXDECODING/DALI
    CALLER1: INT1_ISR/INTERRUPTS
    CALLER2: TIMER1_ISR/INTERRUPTS

Program Size: data=27.4 xdata=12 const=0 code=2216
LX51 RUN COMPLETE.  1 WARNING(S),  0 ERROR(S)
